

Microchip MPLAB XC8 Assembler V2.32 build 20210201212658 
                                                                                               Sun Mar 14 18:20:01 2021

Microchip MPLAB XC8 C Compiler v2.32 (Free license) build 20210201212658 Og1 
     1                           	processor	16F887
     2                           	pagewidth 120
     3                           	opt	flic
     4                           	psect	cinit,global,class=CODE,merge=1,delta=2
     5                           	psect	bssBANK0,global,class=BANK0,space=1,delta=1,noexec
     6                           	psect	clrtext,global,class=CODE,delta=2
     7                           	psect	cstackCOMMON,global,class=COMMON,space=1,delta=1,noexec
     8                           	psect	cstackBANK0,global,class=BANK0,space=1,delta=1,noexec
     9                           	psect	maintext,global,class=CODE,split=1,delta=2
    10                           	psect	text1,local,class=CODE,merge=1,delta=2
    11                           	psect	text2,local,class=CODE,merge=1,delta=2
    12                           	psect	text3,local,class=CODE,merge=1,delta=2
    13                           	psect	text4,local,class=CODE,merge=1,delta=2,group=1
    14                           	psect	text5,local,class=CODE,merge=1,delta=2
    15                           	psect	text6,local,class=CODE,merge=1,delta=2
    16                           	psect	text7,local,class=CODE,merge=1,delta=2
    17                           	psect	text8,local,class=CODE,merge=1,delta=2
    18                           	psect	text9,local,class=CODE,merge=1,delta=2
    19                           	psect	text10,local,class=CODE,merge=1,delta=2
    20                           	psect	text11,local,class=CODE,merge=1,delta=2
    21                           	psect	text12,local,class=CODE,merge=1,delta=2,group=1
    22                           	psect	text13,local,class=CODE,merge=1,delta=2,group=1
    23                           	psect	text14,local,class=CODE,merge=1,delta=2
    24                           	psect	text15,local,class=CODE,merge=1,delta=2,group=2
    25                           	psect	text16,local,class=CODE,merge=1,delta=2
    26                           	psect	text17,local,class=CODE,merge=1,delta=2
    27                           	psect	text18,local,class=CODE,merge=1,delta=2
    28                           	psect	text19,local,class=CODE,merge=1,delta=2
    29                           	psect	text20,local,class=CODE,merge=1,delta=2
    30                           	psect	text21,local,class=CODE,merge=1,delta=2
    31                           	psect	text22,local,class=CODE,merge=1,delta=2
    32                           	psect	text23,local,class=CODE,merge=1,delta=2
    33                           	psect	text24,local,class=CODE,merge=1,delta=2
    34                           	psect	config,global,abs,ovrld,class=CONFIG,space=4,delta=2,noexec
    35                           	dabs	1,0x7E,2
    36  0000                     
    37                           ; Version 2.20
    38                           ; Generated 12/02/2020 GMT
    39                           ; 
    40                           ; Copyright © 2020, Microchip Technology Inc. and its subsidiaries ("Microchip")
    41                           ; All rights reserved.
    42                           ; 
    43                           ; This software is developed by Microchip Technology Inc. and its subsidiaries ("Microch
      +                          ip").
    44                           ; 
    45                           ; Redistribution and use in source and binary forms, with or without modification, are
    46                           ; permitted provided that the following conditions are met:
    47                           ; 
    48                           ;     1. Redistributions of source code must retain the above copyright notice, this lis
      +                          t of
    49                           ;        conditions and the following disclaimer.
    50                           ; 
    51                           ;     2. Redistributions in binary form must reproduce the above copyright notice, this 
      +                          list
    52                           ;        of conditions and the following disclaimer in the documentation and/or other
    53                           ;        materials provided with the distribution.
    54                           ; 
    55                           ;     3. Microchip's name may not be used to endorse or promote products derived from th
      +                          is
    56                           ;        software without specific prior written permission.
    57                           ; 
    58                           ; THIS SOFTWARE IS PROVIDED BY MICROCHIP "AS IS" AND ANY EXPRESS OR IMPLIED WARRANTIES,
    59                           ; INCLUDING, BUT NOT LIMITED TO, THE IMPLIED WARRANTIES OF MERCHANTABILITY AND FITNESS F
      +                          OR
    60                           ; PURPOSE ARE DISCLAIMED.  IN NO EVENT SHALL MICROCHIP BE LIABLE FOR ANY DIRECT, INDIREC
      +                          T,
    61                           ; INCIDENTAL, SPECIAL, EXEMPLARY, OR CONSEQUENTIAL DAMAGES (INCLUDING BUT NOT LIMITED TO
    62                           ; PROCUREMENT OF SUBSTITUTE GOODS OR SERVICES; LOSS OF USE, DATA OR PROFITS; OR BUSINESS
    63                           ; INTERRUPTION) HOWSOEVER CAUSED AND ON ANY THEORY OF LIABILITY, WHETHER IN CONTRACT, ST
      +                          RICT
    64                           ; LIABILITY, OR TORT (INCLUDING NEGLIGENCE OR OTHERWISE) ARISING IN ANY WAY OUT OF THE U
      +                          SE OF
    65                           ; THIS SOFTWARE, EVEN IF ADVISED OF THE POSSIBILITY OF SUCH DAMAGE.
    66                           ; 
    67                           ; 
    68                           ; Code-generator required, PIC16F887 Definitions
    69                           ; 
    70                           ; SFR Addresses
    71  0000                     	;# 
    72  0001                     	;# 
    73  0002                     	;# 
    74  0003                     	;# 
    75  0004                     	;# 
    76  0005                     	;# 
    77  0006                     	;# 
    78  0007                     	;# 
    79  0008                     	;# 
    80  0009                     	;# 
    81  000A                     	;# 
    82  000B                     	;# 
    83  000C                     	;# 
    84  000D                     	;# 
    85  000E                     	;# 
    86  000E                     	;# 
    87  000F                     	;# 
    88  0010                     	;# 
    89  0011                     	;# 
    90  0012                     	;# 
    91  0013                     	;# 
    92  0014                     	;# 
    93  0015                     	;# 
    94  0015                     	;# 
    95  0016                     	;# 
    96  0017                     	;# 
    97  0018                     	;# 
    98  0019                     	;# 
    99  001A                     	;# 
   100  001B                     	;# 
   101  001B                     	;# 
   102  001C                     	;# 
   103  001D                     	;# 
   104  001E                     	;# 
   105  001F                     	;# 
   106  0081                     	;# 
   107  0085                     	;# 
   108  0086                     	;# 
   109  0087                     	;# 
   110  0088                     	;# 
   111  0089                     	;# 
   112  008C                     	;# 
   113  008D                     	;# 
   114  008E                     	;# 
   115  008F                     	;# 
   116  0090                     	;# 
   117  0091                     	;# 
   118  0092                     	;# 
   119  0093                     	;# 
   120  0093                     	;# 
   121  0093                     	;# 
   122  0094                     	;# 
   123  0095                     	;# 
   124  0096                     	;# 
   125  0097                     	;# 
   126  0098                     	;# 
   127  0099                     	;# 
   128  009A                     	;# 
   129  009B                     	;# 
   130  009C                     	;# 
   131  009D                     	;# 
   132  009E                     	;# 
   133  009F                     	;# 
   134  0105                     	;# 
   135  0107                     	;# 
   136  0108                     	;# 
   137  0109                     	;# 
   138  010C                     	;# 
   139  010C                     	;# 
   140  010D                     	;# 
   141  010E                     	;# 
   142  010F                     	;# 
   143  0185                     	;# 
   144  0187                     	;# 
   145  0188                     	;# 
   146  0189                     	;# 
   147  018C                     	;# 
   148  018D                     	;# 
   149  0000                     	;# 
   150  0001                     	;# 
   151  0002                     	;# 
   152  0003                     	;# 
   153  0004                     	;# 
   154  0005                     	;# 
   155  0006                     	;# 
   156  0007                     	;# 
   157  0008                     	;# 
   158  0009                     	;# 
   159  000A                     	;# 
   160  000B                     	;# 
   161  000C                     	;# 
   162  000D                     	;# 
   163  000E                     	;# 
   164  000E                     	;# 
   165  000F                     	;# 
   166  0010                     	;# 
   167  0011                     	;# 
   168  0012                     	;# 
   169  0013                     	;# 
   170  0014                     	;# 
   171  0015                     	;# 
   172  0015                     	;# 
   173  0016                     	;# 
   174  0017                     	;# 
   175  0018                     	;# 
   176  0019                     	;# 
   177  001A                     	;# 
   178  001B                     	;# 
   179  001B                     	;# 
   180  001C                     	;# 
   181  001D                     	;# 
   182  001E                     	;# 
   183  001F                     	;# 
   184  0081                     	;# 
   185  0085                     	;# 
   186  0086                     	;# 
   187  0087                     	;# 
   188  0088                     	;# 
   189  0089                     	;# 
   190  008C                     	;# 
   191  008D                     	;# 
   192  008E                     	;# 
   193  008F                     	;# 
   194  0090                     	;# 
   195  0091                     	;# 
   196  0092                     	;# 
   197  0093                     	;# 
   198  0093                     	;# 
   199  0093                     	;# 
   200  0094                     	;# 
   201  0095                     	;# 
   202  0096                     	;# 
   203  0097                     	;# 
   204  0098                     	;# 
   205  0099                     	;# 
   206  009A                     	;# 
   207  009B                     	;# 
   208  009C                     	;# 
   209  009D                     	;# 
   210  009E                     	;# 
   211  009F                     	;# 
   212  0105                     	;# 
   213  0107                     	;# 
   214  0108                     	;# 
   215  0109                     	;# 
   216  010C                     	;# 
   217  010C                     	;# 
   218  010D                     	;# 
   219  010E                     	;# 
   220  010F                     	;# 
   221  0185                     	;# 
   222  0187                     	;# 
   223  0188                     	;# 
   224  0189                     	;# 
   225  018C                     	;# 
   226  018D                     	;# 
   227  0013                     _SSPBUF	set	19
   228  0014                     _SSPCONbits	set	20
   229  0063                     _SSPIF	set	99
   230  0091                     _SSPCON2bits	set	145
   231  0093                     _SSPADD	set	147
   232  0091                     _SSPCON2	set	145
   233  0094                     _SSPSTATbits	set	148
   234  0094                     _SSPSTAT	set	148
   235  0087                     _TRISCbits	set	135
   236  048E                     _ACKSTAT	set	1166
   237  0463                     _SSPIE	set	1123
   238                           
   239                           	psect	cinit
   240  07F3                     start_initialization:	
   241                           ; #config settings
   242                           
   243  07F3                     __initialization:
   244                           
   245                           ; Clear objects allocated to BANK0
   246  07F3  1383               	bcf	3,7	;select IRP bank0
   247  07F4  3050               	movlw	low __pbssBANK0
   248  07F5  0084               	movwf	4
   249  07F6  306E               	movlw	low (__pbssBANK0+30)
   250  07F7  120A  158A  2609  120A  118A  	fcall	clear_ram0
   251  07FC                     end_of_initialization:	
   252                           ;End of C runtime variable initialization code
   253                           
   254  07FC                     __end_of__initialization:
   255  07FC  0183               	clrf	3
   256  07FD  120A  118A  299B   	ljmp	_main	;jump to C main() function
   257                           
   258                           	psect	bssBANK0
   259  0050                     __pbssBANK0:
   260  0050                     _gyroZ:
   261  0050                     	ds	4
   262  0054                     _gyroY:
   263  0054                     	ds	4
   264  0058                     _gyroX:
   265  0058                     	ds	4
   266  005C                     _temp:
   267  005C                     	ds	4
   268  0060                     _accelZ:
   269  0060                     	ds	4
   270  0064                     _accelY:
   271  0064                     	ds	4
   272  0068                     _accelX:
   273  0068                     	ds	4
   274  006C                     _buffer:
   275  006C                     	ds	2
   276                           
   277                           	psect	clrtext
   278  0E09                     clear_ram0:	
   279                           ;	Called with FSR containing the base address, and
   280                           ;	W with the last address+1
   281                           
   282  0E09  0064               	clrwdt	;clear the watchdog before getting into this loop
   283  0E0A                     clrloop0:
   284  0E0A  0180               	clrf	0	;clear RAM location pointed to by FSR
   285  0E0B  0A84               	incf	4,f	;increment pointer
   286  0E0C  0604               	xorwf	4,w	;XOR with final address
   287  0E0D  1903               	btfsc	3,2	;have we reached the end yet?
   288  0E0E  3400               	retlw	0	;all done for this memory range, return
   289  0E0F  0604               	xorwf	4,w	;XOR again to restore value
   290  0E10  2E0A               	goto	clrloop0	;do the next byte
   291                           
   292                           	psect	cstackCOMMON
   293  0071                     __pcstackCOMMON:
   294  0071                     ?_I2C_Write:
   295  0071                     ??_I2C_Write:	
   296                           ; 1 bytes @ 0x0
   297                           
   298  0071                     ?_I2C_Wait:	
   299                           ; 1 bytes @ 0x0
   300                           
   301  0071                     ??_I2C_Wait:	
   302                           ; 1 bytes @ 0x0
   303                           
   304  0071                     ?_I2C_Ack:	
   305                           ; 1 bytes @ 0x0
   306                           
   307  0071                     ??_I2C_Ack:	
   308                           ; 1 bytes @ 0x0
   309                           
   310  0071                     ?_I2C_Nack:	
   311                           ; 1 bytes @ 0x0
   312                           
   313  0071                     ??_I2C_Nack:	
   314                           ; 1 bytes @ 0x0
   315                           
   316  0071                     ?_memset:	
   317                           ; 1 bytes @ 0x0
   318                           
   319  0071                     ?_I2C_Init:	
   320                           ; 1 bytes @ 0x0
   321                           
   322  0071                     ??_I2C_Init:	
   323                           ; 1 bytes @ 0x0
   324                           
   325  0071                     ?_I2C_Start:	
   326                           ; 1 bytes @ 0x0
   327                           
   328  0071                     ?_I2C_RepeatedStart:	
   329                           ; 1 bytes @ 0x0
   330                           
   331  0071                     ?_I2C_Stop:	
   332                           ; 1 bytes @ 0x0
   333                           
   334  0071                     ??_I2C_Stop:	
   335                           ; 1 bytes @ 0x0
   336                           
   337  0071                     ?_I2C_Read:	
   338                           ; 1 bytes @ 0x0
   339                           
   340  0071                     ??_I2C_Read:	
   341                           ; 1 bytes @ 0x0
   342                           
   343  0071                     ?_MPU6050_Init:	
   344                           ; 1 bytes @ 0x0
   345                           
   346  0071                     ?_main:	
   347                           ; 1 bytes @ 0x0
   348                           
   349  0071                     ?___fldiv:	
   350                           ; 1 bytes @ 0x0
   351                           
   352  0071                     ?___xxtofl:	
   353                           ; 4 bytes @ 0x0
   354                           
   355  0071                     I2C_Init@mode:	
   356                           ; 4 bytes @ 0x0
   357                           
   358  0071                     I2C_Write@data:	
   359                           ; 1 bytes @ 0x0
   360                           
   361  0071                     memset@c:	
   362                           ; 1 bytes @ 0x0
   363                           
   364  0071                     ___fldiv@a:	
   365                           ; 2 bytes @ 0x0
   366                           
   367  0071                     ___xxtofl@val:	
   368                           ; 4 bytes @ 0x0
   369                           
   370                           
   371                           ; 4 bytes @ 0x0
   372  0071                     	ds	1
   373  0072                     ??_I2C_Start:
   374  0072                     ??_I2C_RepeatedStart:	
   375                           ; 1 bytes @ 0x1
   376                           
   377  0072                     I2C_Start@address:	
   378                           ; 1 bytes @ 0x1
   379                           
   380  0072                     I2C_RepeatedStart@address:	
   381                           ; 1 bytes @ 0x1
   382                           
   383  0072                     I2C_Read@mode:	
   384                           ; 1 bytes @ 0x1
   385                           
   386                           
   387                           ; 1 bytes @ 0x1
   388  0072                     	ds	1
   389  0073                     ?_MPU6050_SetRegister:
   390  0073                     I2C_Read@buffer:	
   391                           ; 1 bytes @ 0x2
   392                           
   393  0073                     MPU6050_SetRegister@value:	
   394                           ; 1 bytes @ 0x2
   395                           
   396  0073                     memset@n:	
   397                           ; 1 bytes @ 0x2
   398                           
   399                           
   400                           ; 2 bytes @ 0x2
   401  0073                     	ds	1
   402  0074                     ??_MPU6050_SetRegister:
   403                           
   404                           ; 1 bytes @ 0x3
   405  0074                     	ds	1
   406  0075                     ??_memset:
   407  0075                     ??___xxtofl:	
   408                           ; 1 bytes @ 0x4
   409                           
   410  0075                     MPU6050_SetRegister@reg:	
   411                           ; 1 bytes @ 0x4
   412                           
   413  0075                     ___fldiv@b:	
   414                           ; 1 bytes @ 0x4
   415                           
   416                           
   417                           ; 4 bytes @ 0x4
   418  0075                     	ds	1
   419  0076                     MPU6050_SetRegister@ackMode:
   420  0076                     memset@p1:	
   421                           ; 1 bytes @ 0x5
   422                           
   423                           
   424                           ; 1 bytes @ 0x5
   425  0076                     	ds	1
   426  0077                     ??_MPU6050_Init:
   427  0077                     memset@p:	
   428                           ; 1 bytes @ 0x6
   429                           
   430                           
   431                           ; 1 bytes @ 0x6
   432  0077                     	ds	1
   433  0078                     ?_MPU6050_ReadRegister:
   434  0078                     MPU6050_ReadRegister@num_bytes:	
   435                           ; 1 bytes @ 0x7
   436                           
   437                           
   438                           ; 2 bytes @ 0x7
   439  0078                     	ds	1
   440  0079                     ??___fldiv:
   441                           
   442                           ; 1 bytes @ 0x8
   443  0079                     	ds	1
   444  007A                     MPU6050_ReadRegister@buffer:
   445                           
   446                           ; 1 bytes @ 0x9
   447  007A                     	ds	1
   448  007B                     MPU6050_ReadRegister@buffer_length:
   449                           
   450                           ; 1 bytes @ 0xA
   451  007B                     	ds	1
   452  007C                     ??_MPU6050_ReadRegister:
   453                           
   454                           ; 1 bytes @ 0xB
   455  007C                     	ds	2
   456  007E                     ??_MPU6050_GetGyroY:
   457  007E                     ??_MPU6050_GetGyroZ:	
   458                           ; 1 bytes @ 0xD
   459                           
   460  007E                     ??_MPU6050_GetTemp:	
   461                           ; 1 bytes @ 0xD
   462                           
   463                           
   464                           	psect	cstackBANK0
   465  0020                     __pcstackBANK0:	
   466                           ; 1 bytes @ 0xD
   467                           
   468  0020                     MPU6050_ReadRegister@reg:
   469  0020                     ___xxtofl@sign:	
   470                           ; 1 bytes @ 0x0
   471                           
   472  0020                     ___fldiv@rem:	
   473                           ; 1 bytes @ 0x0
   474                           
   475                           
   476                           ; 4 bytes @ 0x0
   477  0020                     	ds	1
   478  0021                     MPU6050_ReadRegister@index:
   479  0021                     ___xxtofl@exp:	
   480                           ; 1 bytes @ 0x1
   481                           
   482                           
   483                           ; 1 bytes @ 0x1
   484  0021                     	ds	1
   485  0022                     MPU6050_ReadRegister@ackMode:
   486  0022                     ___xxtofl@arg:	
   487                           ; 1 bytes @ 0x2
   488                           
   489                           
   490                           ; 4 bytes @ 0x2
   491  0022                     	ds	2
   492  0024                     ___fldiv@sign:
   493                           
   494                           ; 1 bytes @ 0x4
   495  0024                     	ds	1
   496  0025                     ___fldiv@new_exp:
   497                           
   498                           ; 2 bytes @ 0x5
   499  0025                     	ds	1
   500  0026                     ?_MPU6050_Get16BitRegister:
   501                           
   502                           ; 4 bytes @ 0x6
   503  0026                     	ds	1
   504  0027                     ___fldiv@grs:
   505                           
   506                           ; 4 bytes @ 0x7
   507  0027                     	ds	3
   508  002A                     ??_MPU6050_Get16BitRegister:
   509                           
   510                           ; 1 bytes @ 0xA
   511  002A                     	ds	1
   512  002B                     ___fldiv@bexp:
   513                           
   514                           ; 1 bytes @ 0xB
   515  002B                     	ds	1
   516  002C                     ___fldiv@aexp:
   517                           
   518                           ; 1 bytes @ 0xC
   519  002C                     	ds	1
   520  002D                     ?_MPU6050_GetAccelX:
   521  002D                     ?_MPU6050_GetAccelY:	
   522                           ; 4 bytes @ 0xD
   523                           
   524  002D                     ?_MPU6050_GetAccelZ:	
   525                           ; 4 bytes @ 0xD
   526                           
   527  002D                     ?_MPU6050_GetGyroX:	
   528                           ; 4 bytes @ 0xD
   529                           
   530  002D                     ?___fladd:	
   531                           ; 4 bytes @ 0xD
   532                           
   533  002D                     ___fladd@b:	
   534                           ; 4 bytes @ 0xD
   535                           
   536                           
   537                           ; 4 bytes @ 0xD
   538  002D                     	ds	1
   539  002E                     MPU6050_Get16BitRegister@reg:
   540                           
   541                           ; 1 bytes @ 0xE
   542  002E                     	ds	1
   543  002F                     ?_MPU6050_GetGyroY:
   544  002F                     ?_MPU6050_GetGyroZ:	
   545                           ; 4 bytes @ 0xF
   546                           
   547                           
   548                           ; 4 bytes @ 0xF
   549  002F                     	ds	2
   550  0031                     ??_MPU6050_GetAccelX:
   551  0031                     ??_MPU6050_GetAccelY:	
   552                           ; 1 bytes @ 0x11
   553                           
   554  0031                     ??_MPU6050_GetAccelZ:	
   555                           ; 1 bytes @ 0x11
   556                           
   557  0031                     ??_MPU6050_GetGyroX:	
   558                           ; 1 bytes @ 0x11
   559                           
   560  0031                     ___fladd@a:	
   561                           ; 1 bytes @ 0x11
   562                           
   563                           
   564                           ; 4 bytes @ 0x11
   565  0031                     	ds	2
   566  0033                     MPU6050_GetGyroY@raw_value:
   567  0033                     MPU6050_GetGyroZ@raw_value:	
   568                           ; 4 bytes @ 0x13
   569                           
   570                           
   571                           ; 4 bytes @ 0x13
   572  0033                     	ds	2
   573  0035                     ??___fladd:
   574  0035                     MPU6050_GetAccelX@raw_value:	
   575                           ; 1 bytes @ 0x15
   576                           
   577  0035                     MPU6050_GetAccelY@raw_value:	
   578                           ; 4 bytes @ 0x15
   579                           
   580  0035                     MPU6050_GetAccelZ@raw_value:	
   581                           ; 4 bytes @ 0x15
   582                           
   583  0035                     MPU6050_GetGyroX@raw_value:	
   584                           ; 4 bytes @ 0x15
   585                           
   586                           
   587                           ; 4 bytes @ 0x15
   588  0035                     	ds	8
   589  003D                     ___fladd@signs:
   590                           
   591                           ; 1 bytes @ 0x1D
   592  003D                     	ds	1
   593  003E                     ___fladd@aexp:
   594                           
   595                           ; 1 bytes @ 0x1E
   596  003E                     	ds	1
   597  003F                     ___fladd@bexp:
   598                           
   599                           ; 1 bytes @ 0x1F
   600  003F                     	ds	1
   601  0040                     ___fladd@grs:
   602                           
   603                           ; 1 bytes @ 0x20
   604  0040                     	ds	1
   605  0041                     ?_MPU6050_GetTemp:
   606                           
   607                           ; 4 bytes @ 0x21
   608  0041                     	ds	4
   609  0045                     MPU6050_GetTemp@raw_value:
   610                           
   611                           ; 4 bytes @ 0x25
   612  0045                     	ds	4
   613  0049                     MPU6050_GetTemp@value:
   614                           
   615                           ; 4 bytes @ 0x29
   616  0049                     	ds	4
   617  004D                     ??_main:
   618                           
   619                           ; 1 bytes @ 0x2D
   620  004D                     	ds	3
   621                           
   622                           	psect	maintext
   623  019B                     __pmaintext:	
   624 ;;
   625 ;;Main: autosize = 0, tempsize = 3, incstack = 0, save=0
   626 ;;
   627 ;; *************** function _main *****************
   628 ;; Defined at:
   629 ;;		line 38 in file "main.c"
   630 ;; Parameters:    Size  Location     Type
   631 ;;		None
   632 ;; Auto vars:     Size  Location     Type
   633 ;;		None
   634 ;; Return value:  Size  Location     Type
   635 ;;                  1    wreg      void 
   636 ;; Registers used:
   637 ;;		wreg, fsr0l, fsr0h, status,2, status,0, btemp+1, pclath, cstack
   638 ;; Tracked objects:
   639 ;;		On entry : B00/0
   640 ;;		On exit  : 0/0
   641 ;;		Unchanged: 0/0
   642 ;; Data sizes:     COMMON   BANK0   BANK1   BANK3   BANK2
   643 ;;      Params:         0       0       0       0       0
   644 ;;      Locals:         0       0       0       0       0
   645 ;;      Temps:          0       3       0       0       0
   646 ;;      Totals:         0       3       0       0       0
   647 ;;Total ram usage:        3 bytes
   648 ;; Hardware stack levels required when called: 6
   649 ;; This function calls:
   650 ;;		_I2C_Init
   651 ;;		_MPU6050_GetAccelX
   652 ;;		_MPU6050_GetAccelY
   653 ;;		_MPU6050_GetAccelZ
   654 ;;		_MPU6050_GetGyroX
   655 ;;		_MPU6050_GetGyroY
   656 ;;		_MPU6050_GetGyroZ
   657 ;;		_MPU6050_GetTemp
   658 ;;		_MPU6050_Init
   659 ;; This function is called by:
   660 ;;		Startup code after reset
   661 ;; This function uses a non-reentrant model
   662 ;;
   663                           
   664                           
   665                           ;psect for function _main
   666  019B                     _main:
   667  019B                     l1938:	
   668                           ;incstack = 0
   669                           ; Regs used in _main: [wreg-fsr0h+status,2+status,0+btemp+1+pclath+cstack]
   670                           
   671                           
   672                           ;main.c: 41:     I2C_Init(I2C_MASTER_MODE);
   673  019B  3000               	movlw	0
   674  019C  120A  118A  2009  120A  118A  	fcall	_I2C_Init
   675                           
   676                           ;main.c: 42:     MPU6050_Init();
   677  01A1  120A  158A  2742  120A  118A  	fcall	_MPU6050_Init
   678  01A6                     l1940:
   679                           
   680                           ;main.c: 45:         temp = MPU6050_GetTemp();
   681  01A6  120A  158A  27B1  120A  118A  	fcall	_MPU6050_GetTemp
   682  01AB  1283               	bcf	3,5	;RP0=0, select bank0
   683  01AC  1303               	bcf	3,6	;RP1=0, select bank0
   684  01AD  0844               	movf	?_MPU6050_GetTemp+3,w
   685  01AE  00DF               	movwf	_temp+3
   686  01AF  0843               	movf	?_MPU6050_GetTemp+2,w
   687  01B0  00DE               	movwf	_temp+2
   688  01B1  0842               	movf	?_MPU6050_GetTemp+1,w
   689  01B2  00DD               	movwf	_temp+1
   690  01B3  0841               	movf	?_MPU6050_GetTemp,w
   691  01B4  00DC               	movwf	_temp
   692  01B5                     l1942:
   693                           
   694                           ;main.c: 46:         gyroZ = MPU6050_GetGyroZ();
   695  01B5  120A  158A  2712  120A  118A  	fcall	_MPU6050_GetGyroZ
   696  01BA  1283               	bcf	3,5	;RP0=0, select bank0
   697  01BB  1303               	bcf	3,6	;RP1=0, select bank0
   698  01BC  0832               	movf	?_MPU6050_GetGyroZ+3,w
   699  01BD  00D3               	movwf	_gyroZ+3
   700  01BE  0831               	movf	?_MPU6050_GetGyroZ+2,w
   701  01BF  00D2               	movwf	_gyroZ+2
   702  01C0  0830               	movf	?_MPU6050_GetGyroZ+1,w
   703  01C1  00D1               	movwf	_gyroZ+1
   704  01C2  082F               	movf	?_MPU6050_GetGyroZ,w
   705  01C3  00D0               	movwf	_gyroZ
   706  01C4                     l1944:
   707                           
   708                           ;main.c: 47:         gyroY = MPU6050_GetGyroY();
   709  01C4  120A  158A  26E2  120A  118A  	fcall	_MPU6050_GetGyroY
   710  01C9  1283               	bcf	3,5	;RP0=0, select bank0
   711  01CA  1303               	bcf	3,6	;RP1=0, select bank0
   712  01CB  0832               	movf	?_MPU6050_GetGyroY+3,w
   713  01CC  00D7               	movwf	_gyroY+3
   714  01CD  0831               	movf	?_MPU6050_GetGyroY+2,w
   715  01CE  00D6               	movwf	_gyroY+2
   716  01CF  0830               	movf	?_MPU6050_GetGyroY+1,w
   717  01D0  00D5               	movwf	_gyroY+1
   718  01D1  082F               	movf	?_MPU6050_GetGyroY,w
   719  01D2  00D4               	movwf	_gyroY
   720  01D3                     l1946:
   721                           
   722                           ;main.c: 48:         gyroX = MPU6050_GetGyroX();
   723  01D3  120A  118A  2141  120A  118A  	fcall	_MPU6050_GetGyroX
   724  01D8  1283               	bcf	3,5	;RP0=0, select bank0
   725  01D9  1303               	bcf	3,6	;RP1=0, select bank0
   726  01DA  0830               	movf	?_MPU6050_GetGyroX+3,w
   727  01DB  00DB               	movwf	_gyroX+3
   728  01DC  082F               	movf	?_MPU6050_GetGyroX+2,w
   729  01DD  00DA               	movwf	_gyroX+2
   730  01DE  082E               	movf	?_MPU6050_GetGyroX+1,w
   731  01DF  00D9               	movwf	_gyroX+1
   732  01E0  082D               	movf	?_MPU6050_GetGyroX,w
   733  01E1  00D8               	movwf	_gyroX
   734  01E2                     l1948:
   735                           
   736                           ;main.c: 49:         accelZ = MPU6050_GetAccelZ();
   737  01E2  120A  118A  20E7  120A  118A  	fcall	_MPU6050_GetAccelZ
   738  01E7  1283               	bcf	3,5	;RP0=0, select bank0
   739  01E8  1303               	bcf	3,6	;RP1=0, select bank0
   740  01E9  0830               	movf	?_MPU6050_GetAccelZ+3,w
   741  01EA  00E3               	movwf	_accelZ+3
   742  01EB  082F               	movf	?_MPU6050_GetAccelZ+2,w
   743  01EC  00E2               	movwf	_accelZ+2
   744  01ED  082E               	movf	?_MPU6050_GetAccelZ+1,w
   745  01EE  00E1               	movwf	_accelZ+1
   746  01EF  082D               	movf	?_MPU6050_GetAccelZ,w
   747  01F0  00E0               	movwf	_accelZ
   748  01F1                     l1950:
   749                           
   750                           ;main.c: 50:         accelY = MPU6050_GetAccelY();
   751  01F1  120A  118A  208D  120A  118A  	fcall	_MPU6050_GetAccelY
   752  01F6  1283               	bcf	3,5	;RP0=0, select bank0
   753  01F7  1303               	bcf	3,6	;RP1=0, select bank0
   754  01F8  0830               	movf	?_MPU6050_GetAccelY+3,w
   755  01F9  00E7               	movwf	_accelY+3
   756  01FA  082F               	movf	?_MPU6050_GetAccelY+2,w
   757  01FB  00E6               	movwf	_accelY+2
   758  01FC  082E               	movf	?_MPU6050_GetAccelY+1,w
   759  01FD  00E5               	movwf	_accelY+1
   760  01FE  082D               	movf	?_MPU6050_GetAccelY,w
   761  01FF  00E4               	movwf	_accelY
   762  0200                     l1952:
   763                           
   764                           ;main.c: 51:         accelX = MPU6050_GetAccelX();
   765  0200  120A  118A  2033  120A  118A  	fcall	_MPU6050_GetAccelX
   766  0205  1283               	bcf	3,5	;RP0=0, select bank0
   767  0206  1303               	bcf	3,6	;RP1=0, select bank0
   768  0207  0830               	movf	?_MPU6050_GetAccelX+3,w
   769  0208  00EB               	movwf	_accelX+3
   770  0209  082F               	movf	?_MPU6050_GetAccelX+2,w
   771  020A  00EA               	movwf	_accelX+2
   772  020B  082E               	movf	?_MPU6050_GetAccelX+1,w
   773  020C  00E9               	movwf	_accelX+1
   774  020D  082D               	movf	?_MPU6050_GetAccelX,w
   775  020E  00E8               	movwf	_accelX
   776  020F                     l1954:
   777                           
   778                           ;main.c: 53:         _delay((unsigned long)((500)*(4000000/4000.0)));
   779  020F  3003               	movlw	3
   780  0210  1283               	bcf	3,5	;RP0=0, select bank0
   781  0211  1303               	bcf	3,6	;RP1=0, select bank0
   782  0212  00CF               	movwf	??_main+2
   783  0213  308A               	movlw	138
   784  0214  00CE               	movwf	??_main+1
   785  0215  3055               	movlw	85
   786  0216  00CD               	movwf	??_main
   787  0217                     u2257:
   788  0217  0BCD               	decfsz	??_main,f
   789  0218  2A17               	goto	u2257
   790  0219  0BCE               	decfsz	??_main+1,f
   791  021A  2A17               	goto	u2257
   792  021B  0BCF               	decfsz	??_main+2,f
   793  021C  2A17               	goto	u2257
   794  021D  29A6               	goto	l1940
   795  021E  120A  118A  2801   	ljmp	start
   796  0221                     __end_of_main:
   797                           
   798                           	psect	text1
   799  0F42                     __ptext1:	
   800 ;; *************** function _MPU6050_Init *****************
   801 ;; Defined at:
   802 ;;		line 38 in file "./MPU6050.h"
   803 ;; Parameters:    Size  Location     Type
   804 ;;		None
   805 ;; Auto vars:     Size  Location     Type
   806 ;;		None
   807 ;; Return value:  Size  Location     Type
   808 ;;                  1    wreg      void 
   809 ;; Registers used:
   810 ;;		wreg, status,2, status,0, pclath, cstack
   811 ;; Tracked objects:
   812 ;;		On entry : 0/0
   813 ;;		On exit  : 0/0
   814 ;;		Unchanged: 0/0
   815 ;; Data sizes:     COMMON   BANK0   BANK1   BANK3   BANK2
   816 ;;      Params:         0       0       0       0       0
   817 ;;      Locals:         0       0       0       0       0
   818 ;;      Temps:          1       0       0       0       0
   819 ;;      Totals:         1       0       0       0       0
   820 ;;Total ram usage:        1 bytes
   821 ;; Hardware stack levels used: 1
   822 ;; Hardware stack levels required when called: 4
   823 ;; This function calls:
   824 ;;		_MPU6050_SetRegister
   825 ;; This function is called by:
   826 ;;		_main
   827 ;; This function uses a non-reentrant model
   828 ;;
   829                           
   830                           
   831                           ;psect for function _MPU6050_Init
   832  0F42                     _MPU6050_Init:
   833  0F42                     l1884:	
   834                           ;incstack = 0
   835                           ; Regs used in _MPU6050_Init: [wreg+status,2+status,0+pclath+cstack]
   836                           
   837                           
   838                           ;./MPU6050.h: 39:     MPU6050_SetRegister(0x19, 0x07);
   839  0F42  3007               	movlw	7
   840  0F43  00F7               	movwf	??_MPU6050_Init
   841  0F44  0877               	movf	??_MPU6050_Init,w
   842  0F45  00F3               	movwf	MPU6050_SetRegister@value
   843  0F46  3019               	movlw	25
   844  0F47  120A  158A  26B9  120A  158A  	fcall	_MPU6050_SetRegister
   845                           
   846                           ;./MPU6050.h: 40:     MPU6050_SetRegister(0x6B, 0x01);
   847  0F4C  01F3               	clrf	MPU6050_SetRegister@value
   848  0F4D  0AF3               	incf	MPU6050_SetRegister@value,f
   849  0F4E  306B               	movlw	107
   850  0F4F  120A  158A  26B9  120A  158A  	fcall	_MPU6050_SetRegister
   851                           
   852                           ;./MPU6050.h: 41:     MPU6050_SetRegister(0x1A, 0x00);
   853  0F54  01F3               	clrf	MPU6050_SetRegister@value
   854  0F55  301A               	movlw	26
   855  0F56  120A  158A  26B9  120A  158A  	fcall	_MPU6050_SetRegister
   856                           
   857                           ;./MPU6050.h: 42:     MPU6050_SetRegister(0x1C, 0x00);
   858  0F5B  01F3               	clrf	MPU6050_SetRegister@value
   859  0F5C  301C               	movlw	28
   860  0F5D  120A  158A  26B9  120A  158A  	fcall	_MPU6050_SetRegister
   861                           
   862                           ;./MPU6050.h: 43:     MPU6050_SetRegister(0x1B, 0x18);
   863  0F62  3018               	movlw	24
   864  0F63  00F7               	movwf	??_MPU6050_Init
   865  0F64  0877               	movf	??_MPU6050_Init,w
   866  0F65  00F3               	movwf	MPU6050_SetRegister@value
   867  0F66  301B               	movlw	27
   868  0F67  120A  158A  26B9  120A  158A  	fcall	_MPU6050_SetRegister
   869                           
   870                           ;./MPU6050.h: 44:     MPU6050_SetRegister(0x38, 0x01);
   871  0F6C  01F3               	clrf	MPU6050_SetRegister@value
   872  0F6D  0AF3               	incf	MPU6050_SetRegister@value,f
   873  0F6E  3038               	movlw	56
   874  0F6F  120A  158A  26B9  120A  158A  	fcall	_MPU6050_SetRegister
   875  0F74                     l101:
   876  0F74  0008               	return
   877  0F75                     __end_of_MPU6050_Init:
   878                           
   879                           	psect	text2
   880  0EB9                     __ptext2:	
   881 ;; *************** function _MPU6050_SetRegister *****************
   882 ;; Defined at:
   883 ;;		line 47 in file "./MPU6050.h"
   884 ;; Parameters:    Size  Location     Type
   885 ;;  reg             1    wreg     unsigned char 
   886 ;;  value           1    2[COMMON] unsigned char 
   887 ;; Auto vars:     Size  Location     Type
   888 ;;  reg             1    4[COMMON] unsigned char 
   889 ;;  ackMode         1    5[COMMON] enum E1561
   890 ;; Return value:  Size  Location     Type
   891 ;;                  1    wreg      void 
   892 ;; Registers used:
   893 ;;		wreg, status,2, status,0, pclath, cstack
   894 ;; Tracked objects:
   895 ;;		On entry : 0/0
   896 ;;		On exit  : 0/0
   897 ;;		Unchanged: 0/0
   898 ;; Data sizes:     COMMON   BANK0   BANK1   BANK3   BANK2
   899 ;;      Params:         1       0       0       0       0
   900 ;;      Locals:         2       0       0       0       0
   901 ;;      Temps:          1       0       0       0       0
   902 ;;      Totals:         4       0       0       0       0
   903 ;;Total ram usage:        4 bytes
   904 ;; Hardware stack levels used: 1
   905 ;; Hardware stack levels required when called: 3
   906 ;; This function calls:
   907 ;;		_I2C_Start
   908 ;;		_I2C_Stop
   909 ;;		_I2C_Write
   910 ;; This function is called by:
   911 ;;		_MPU6050_Init
   912 ;; This function uses a non-reentrant model
   913 ;;
   914                           
   915                           
   916                           ;psect for function _MPU6050_SetRegister
   917  0EB9                     _MPU6050_SetRegister:
   918                           
   919                           ;incstack = 0
   920                           ; Regs used in _MPU6050_SetRegister: [wreg+status,2+status,0+pclath+cstack]
   921                           ;MPU6050_SetRegister@reg stored from wreg
   922  0EB9  00F5               	movwf	MPU6050_SetRegister@reg
   923  0EBA                     l1510:
   924  0EBA                     l1512:
   925                           
   926                           ;./MPU6050.h: 50:     ackMode = I2C_Start(0xD2);
   927  0EBA  30D2               	movlw	210
   928  0EBB  120A  158A  265F  120A  158A  	fcall	_I2C_Start
   929  0EC0  00F4               	movwf	??_MPU6050_SetRegister
   930  0EC1  0874               	movf	??_MPU6050_SetRegister,w
   931  0EC2  00F6               	movwf	MPU6050_SetRegister@ackMode
   932  0EC3                     l1514:
   933                           
   934                           ;./MPU6050.h: 52:     if (ackMode == ACK) {
   935  0EC3  0876               	movf	MPU6050_SetRegister@ackMode,w
   936  0EC4  1D03               	btfss	3,2
   937  0EC5  2EC7               	goto	u1461
   938  0EC6  2EC8               	goto	u1460
   939  0EC7                     u1461:
   940  0EC7  2EDC               	goto	l104
   941  0EC8                     u1460:
   942  0EC8                     l1516:
   943                           
   944                           ;./MPU6050.h: 53:         ackMode = I2C_Write(reg);
   945  0EC8  0875               	movf	MPU6050_SetRegister@reg,w
   946  0EC9  120A  158A  2631  120A  158A  	fcall	_I2C_Write
   947  0ECE  00F4               	movwf	??_MPU6050_SetRegister
   948  0ECF  0874               	movf	??_MPU6050_SetRegister,w
   949  0ED0  00F6               	movwf	MPU6050_SetRegister@ackMode
   950  0ED1                     l1518:
   951                           
   952                           ;./MPU6050.h: 55:         if (ackMode == ACK) {
   953  0ED1  0876               	movf	MPU6050_SetRegister@ackMode,w
   954  0ED2  1D03               	btfss	3,2
   955  0ED3  2ED5               	goto	u1471
   956  0ED4  2ED6               	goto	u1470
   957  0ED5                     u1471:
   958  0ED5  2EDC               	goto	l104
   959  0ED6                     u1470:
   960  0ED6                     l1520:
   961  0ED6  0873               	movf	MPU6050_SetRegister@value,w
   962  0ED7  120A  158A  2631  120A  158A  	fcall	_I2C_Write
   963  0EDC                     l104:	
   964                           ;./MPU6050.h: 58:     }
   965                           
   966                           
   967                           ;./MPU6050.h: 60:     I2C_Stop();
   968  0EDC  120A  158A  2623  120A  158A  	fcall	_I2C_Stop
   969  0EE1                     l106:
   970  0EE1  0008               	return
   971  0EE2                     __end_of_MPU6050_SetRegister:
   972                           
   973                           	psect	text3
   974  0FB1                     __ptext3:	
   975 ;; *************** function _MPU6050_GetTemp *****************
   976 ;; Defined at:
   977 ;;		line 128 in file "./MPU6050.h"
   978 ;; Parameters:    Size  Location     Type
   979 ;;		None
   980 ;; Auto vars:     Size  Location     Type
   981 ;;  value           4   41[BANK0 ] void 
   982 ;;  raw_value       4   37[BANK0 ] void 
   983 ;; Return value:  Size  Location     Type
   984 ;;                  4   33[BANK0 ] void 
   985 ;; Registers used:
   986 ;;		wreg, fsr0l, fsr0h, status,2, status,0, btemp+1, pclath, cstack
   987 ;; Tracked objects:
   988 ;;		On entry : 0/0
   989 ;;		On exit  : 0/0
   990 ;;		Unchanged: 0/0
   991 ;; Data sizes:     COMMON   BANK0   BANK1   BANK3   BANK2
   992 ;;      Params:         0       4       0       0       0
   993 ;;      Locals:         0       8       0       0       0
   994 ;;      Temps:          0       0       0       0       0
   995 ;;      Totals:         0      12       0       0       0
   996 ;;Total ram usage:       12 bytes
   997 ;; Hardware stack levels used: 1
   998 ;; Hardware stack levels required when called: 5
   999 ;; This function calls:
  1000 ;;		_MPU6050_Get16BitRegister
  1001 ;;		___fladd
  1002 ;;		___fldiv
  1003 ;; This function is called by:
  1004 ;;		_main
  1005 ;; This function uses a non-reentrant model
  1006 ;;
  1007                           
  1008                           
  1009                           ;psect for function _MPU6050_GetTemp
  1010  0FB1                     _MPU6050_GetTemp:
  1011  0FB1                     l1930:	
  1012                           ;incstack = 0
  1013                           ; Regs used in _MPU6050_GetTemp: [wreg-fsr0h+status,2+status,0+btemp+1+pclath+cstack]
  1014                           
  1015                           
  1016                           ;./MPU6050.h: 129:     double raw_value = MPU6050_Get16BitRegister(0x41);
  1017  0FB1  3041               	movlw	65
  1018  0FB2  120A  158A  2775  120A  158A  	fcall	_MPU6050_Get16BitRegister
  1019  0FB7  1283               	bcf	3,5	;RP0=0, select bank0
  1020  0FB8  1303               	bcf	3,6	;RP1=0, select bank0
  1021  0FB9  0829               	movf	?_MPU6050_Get16BitRegister+3,w
  1022  0FBA  00C8               	movwf	MPU6050_GetTemp@raw_value+3
  1023  0FBB  0828               	movf	?_MPU6050_Get16BitRegister+2,w
  1024  0FBC  00C7               	movwf	MPU6050_GetTemp@raw_value+2
  1025  0FBD  0827               	movf	?_MPU6050_Get16BitRegister+1,w
  1026  0FBE  00C6               	movwf	MPU6050_GetTemp@raw_value+1
  1027  0FBF  0826               	movf	?_MPU6050_Get16BitRegister,w
  1028  0FC0  00C5               	movwf	MPU6050_GetTemp@raw_value
  1029  0FC1                     l1932:
  1030                           
  1031                           ;./MPU6050.h: 130:     double value = (raw_value / 340.00) + 36.53;
  1032  0FC1  3042               	movlw	66
  1033  0FC2  00B0               	movwf	___fladd@b+3
  1034  0FC3  3012               	movlw	18
  1035  0FC4  00AF               	movwf	___fladd@b+2
  1036  0FC5  301E               	movlw	30
  1037  0FC6  00AE               	movwf	___fladd@b+1
  1038  0FC7  30B8               	movlw	184
  1039  0FC8  00AD               	movwf	___fladd@b
  1040  0FC9  3043               	movlw	67
  1041  0FCA  00F4               	movwf	___fldiv@a+3
  1042  0FCB  30AA               	movlw	170
  1043  0FCC  00F3               	movwf	___fldiv@a+2
  1044  0FCD  3000               	movlw	0
  1045  0FCE  00F2               	movwf	___fldiv@a+1
  1046  0FCF  3000               	movlw	0
  1047  0FD0  00F1               	movwf	___fldiv@a
  1048  0FD1  0848               	movf	MPU6050_GetTemp@raw_value+3,w
  1049  0FD2  00F8               	movwf	___fldiv@b+3
  1050  0FD3  0847               	movf	MPU6050_GetTemp@raw_value+2,w
  1051  0FD4  00F7               	movwf	___fldiv@b+2
  1052  0FD5  0846               	movf	MPU6050_GetTemp@raw_value+1,w
  1053  0FD6  00F6               	movwf	___fldiv@b+1
  1054  0FD7  0845               	movf	MPU6050_GetTemp@raw_value,w
  1055  0FD8  00F5               	movwf	___fldiv@b
  1056  0FD9  120A  118A  2388  120A  158A  	fcall	___fldiv
  1057  0FDE  0874               	movf	?___fldiv+3,w
  1058  0FDF  1283               	bcf	3,5	;RP0=0, select bank0
  1059  0FE0  1303               	bcf	3,6	;RP1=0, select bank0
  1060  0FE1  00B4               	movwf	___fladd@a+3
  1061  0FE2  0873               	movf	?___fldiv+2,w
  1062  0FE3  00B3               	movwf	___fladd@a+2
  1063  0FE4  0872               	movf	?___fldiv+1,w
  1064  0FE5  00B2               	movwf	___fladd@a+1
  1065  0FE6  0871               	movf	?___fldiv,w
  1066  0FE7  00B1               	movwf	___fladd@a
  1067  0FE8  120A  118A  256B  120A  158A  	fcall	___fladd
  1068  0FED  1283               	bcf	3,5	;RP0=0, select bank0
  1069  0FEE  1303               	bcf	3,6	;RP1=0, select bank0
  1070  0FEF  0830               	movf	?___fladd+3,w
  1071  0FF0  00CC               	movwf	MPU6050_GetTemp@value+3
  1072  0FF1  082F               	movf	?___fladd+2,w
  1073  0FF2  00CB               	movwf	MPU6050_GetTemp@value+2
  1074  0FF3  082E               	movf	?___fladd+1,w
  1075  0FF4  00CA               	movwf	MPU6050_GetTemp@value+1
  1076  0FF5  082D               	movf	?___fladd,w
  1077  0FF6  00C9               	movwf	MPU6050_GetTemp@value
  1078  0FF7                     l1934:
  1079                           
  1080                           ;./MPU6050.h: 131:     return value;
  1081  0FF7  084C               	movf	MPU6050_GetTemp@value+3,w
  1082  0FF8  00C4               	movwf	?_MPU6050_GetTemp+3
  1083  0FF9  084B               	movf	MPU6050_GetTemp@value+2,w
  1084  0FFA  00C3               	movwf	?_MPU6050_GetTemp+2
  1085  0FFB  084A               	movf	MPU6050_GetTemp@value+1,w
  1086  0FFC  00C2               	movwf	?_MPU6050_GetTemp+1
  1087  0FFD  0849               	movf	MPU6050_GetTemp@value,w
  1088  0FFE  00C1               	movwf	?_MPU6050_GetTemp
  1089  0FFF                     l137:
  1090  0FFF  0008               	return
  1091  1000                     __end_of_MPU6050_GetTemp:
  1092                           
  1093                           	psect	text4
  1094  056B                     __ptext4:	
  1095 ;; *************** function ___fladd *****************
  1096 ;; Defined at:
  1097 ;;		line 10 in file "C:\Program Files\Microchip\xc8\v2.32\pic\sources\c90\common\sprcadd.c"
  1098 ;; Parameters:    Size  Location     Type
  1099 ;;  b               4   13[BANK0 ] void 
  1100 ;;  a               4   17[BANK0 ] void 
  1101 ;; Auto vars:     Size  Location     Type
  1102 ;;  grs             1   32[BANK0 ] unsigned char 
  1103 ;;  bexp            1   31[BANK0 ] unsigned char 
  1104 ;;  aexp            1   30[BANK0 ] unsigned char 
  1105 ;;  signs           1   29[BANK0 ] unsigned char 
  1106 ;; Return value:  Size  Location     Type
  1107 ;;                  4   13[BANK0 ] unsigned char 
  1108 ;; Registers used:
  1109 ;;		wreg, status,2, status,0, btemp+1
  1110 ;; Tracked objects:
  1111 ;;		On entry : 0/0
  1112 ;;		On exit  : 0/0
  1113 ;;		Unchanged: 0/0
  1114 ;; Data sizes:     COMMON   BANK0   BANK1   BANK3   BANK2
  1115 ;;      Params:         0       8       0       0       0
  1116 ;;      Locals:         0       4       0       0       0
  1117 ;;      Temps:          0       8       0       0       0
  1118 ;;      Totals:         0      20       0       0       0
  1119 ;;Total ram usage:       20 bytes
  1120 ;; Hardware stack levels used: 1
  1121 ;; This function calls:
  1122 ;;		Nothing
  1123 ;; This function is called by:
  1124 ;;		_MPU6050_GetTemp
  1125 ;; This function uses a non-reentrant model
  1126 ;;
  1127                           
  1128                           
  1129                           ;psect for function ___fladd
  1130  056B                     ___fladd:
  1131  056B                     l1528:	
  1132                           ;incstack = 0
  1133                           ; Regs used in ___fladd: [wreg+status,2+status,0+btemp+1]
  1134                           
  1135  056B  1283               	bcf	3,5	;RP0=0, select bank0
  1136  056C  1303               	bcf	3,6	;RP1=0, select bank0
  1137  056D  0830               	movf	___fladd@b+3,w
  1138  056E  3980               	andlw	128
  1139  056F  00B5               	movwf	??___fladd
  1140  0570  0835               	movf	??___fladd,w
  1141  0571  00BD               	movwf	___fladd@signs
  1142  0572                     l1530:
  1143  0572  0830               	movf	___fladd@b+3,w
  1144  0573  00B5               	movwf	??___fladd
  1145  0574  0735               	addwf	??___fladd,w
  1146  0575  00B6               	movwf	??___fladd+1
  1147  0576  0836               	movf	??___fladd+1,w
  1148  0577  00BF               	movwf	___fladd@bexp
  1149  0578                     l1532:
  1150  0578  1FAF               	btfss	___fladd@b+2,7
  1151  0579  2D7B               	goto	u1481
  1152  057A  2D7C               	goto	u1480
  1153  057B                     u1481:
  1154  057B  2D7D               	goto	l1536
  1155  057C                     u1480:
  1156  057C                     l1534:
  1157  057C  143F               	bsf	___fladd@bexp,0
  1158  057D                     l1536:
  1159  057D  083F               	movf	___fladd@bexp,w
  1160  057E  1903               	btfsc	3,2
  1161  057F  2D81               	goto	u1491
  1162  0580  2D82               	goto	u1490
  1163  0581                     u1491:
  1164  0581  2D92               	goto	l1546
  1165  0582                     u1490:
  1166  0582                     l1538:
  1167  0582  0A3F               	incf	___fladd@bexp,w
  1168  0583  1D03               	btfss	3,2
  1169  0584  2D86               	goto	u1501
  1170  0585  2D87               	goto	u1500
  1171  0586                     u1501:
  1172  0586  2D8F               	goto	l1542
  1173  0587                     u1500:
  1174  0587                     l1540:
  1175  0587  3000               	movlw	0
  1176  0588  00B0               	movwf	___fladd@b+3
  1177  0589  3000               	movlw	0
  1178  058A  00AF               	movwf	___fladd@b+2
  1179  058B  3000               	movlw	0
  1180  058C  00AE               	movwf	___fladd@b+1
  1181  058D  3000               	movlw	0
  1182  058E  00AD               	movwf	___fladd@b
  1183  058F                     l1542:
  1184  058F  17AF               	bsf	___fladd@b+2,7
  1185  0590                     l1544:
  1186  0590  01B0               	clrf	___fladd@b+3
  1187  0591  2D9A               	goto	l1548
  1188  0592                     l1546:
  1189  0592  3000               	movlw	0
  1190  0593  00B0               	movwf	___fladd@b+3
  1191  0594  3000               	movlw	0
  1192  0595  00AF               	movwf	___fladd@b+2
  1193  0596  3000               	movlw	0
  1194  0597  00AE               	movwf	___fladd@b+1
  1195  0598  3000               	movlw	0
  1196  0599  00AD               	movwf	___fladd@b
  1197  059A                     l1548:
  1198  059A  0834               	movf	___fladd@a+3,w
  1199  059B  3980               	andlw	128
  1200  059C  00B5               	movwf	??___fladd
  1201  059D  0835               	movf	??___fladd,w
  1202  059E  00BE               	movwf	___fladd@aexp
  1203  059F                     l1550:
  1204  059F  083E               	movf	___fladd@aexp,w
  1205  05A0  063D               	xorwf	___fladd@signs,w
  1206  05A1  1903               	skipnz
  1207  05A2  2DA4               	goto	u1511
  1208  05A3  2DA5               	goto	u1510
  1209  05A4                     u1511:
  1210  05A4  2DA6               	goto	l1554
  1211  05A5                     u1510:
  1212  05A5                     l1552:
  1213  05A5  173D               	bsf	___fladd@signs,6
  1214  05A6                     l1554:
  1215  05A6  0834               	movf	___fladd@a+3,w
  1216  05A7  00B5               	movwf	??___fladd
  1217  05A8  0735               	addwf	??___fladd,w
  1218  05A9  00B6               	movwf	??___fladd+1
  1219  05AA  0836               	movf	??___fladd+1,w
  1220  05AB  00BE               	movwf	___fladd@aexp
  1221  05AC                     l1556:
  1222  05AC  1FB3               	btfss	___fladd@a+2,7
  1223  05AD  2DAF               	goto	u1521
  1224  05AE  2DB0               	goto	u1520
  1225  05AF                     u1521:
  1226  05AF  2DB1               	goto	l1560
  1227  05B0                     u1520:
  1228  05B0                     l1558:
  1229  05B0  143E               	bsf	___fladd@aexp,0
  1230  05B1                     l1560:
  1231  05B1  083E               	movf	___fladd@aexp,w
  1232  05B2  1903               	btfsc	3,2
  1233  05B3  2DB5               	goto	u1531
  1234  05B4  2DB6               	goto	u1530
  1235  05B5                     u1531:
  1236  05B5  2DC6               	goto	l1570
  1237  05B6                     u1530:
  1238  05B6                     l1562:
  1239  05B6  0A3E               	incf	___fladd@aexp,w
  1240  05B7  1D03               	btfss	3,2
  1241  05B8  2DBA               	goto	u1541
  1242  05B9  2DBB               	goto	u1540
  1243  05BA                     u1541:
  1244  05BA  2DC3               	goto	l1566
  1245  05BB                     u1540:
  1246  05BB                     l1564:
  1247  05BB  3000               	movlw	0
  1248  05BC  00B4               	movwf	___fladd@a+3
  1249  05BD  3000               	movlw	0
  1250  05BE  00B3               	movwf	___fladd@a+2
  1251  05BF  3000               	movlw	0
  1252  05C0  00B2               	movwf	___fladd@a+1
  1253  05C1  3000               	movlw	0
  1254  05C2  00B1               	movwf	___fladd@a
  1255  05C3                     l1566:
  1256  05C3  17B3               	bsf	___fladd@a+2,7
  1257  05C4                     l1568:
  1258  05C4  01B4               	clrf	___fladd@a+3
  1259  05C5  2DCE               	goto	l541
  1260  05C6                     l1570:
  1261  05C6  3000               	movlw	0
  1262  05C7  00B4               	movwf	___fladd@a+3
  1263  05C8  3000               	movlw	0
  1264  05C9  00B3               	movwf	___fladd@a+2
  1265  05CA  3000               	movlw	0
  1266  05CB  00B2               	movwf	___fladd@a+1
  1267  05CC  3000               	movlw	0
  1268  05CD  00B1               	movwf	___fladd@a
  1269  05CE                     l541:
  1270  05CE  083F               	movf	___fladd@bexp,w
  1271  05CF  023E               	subwf	___fladd@aexp,w
  1272  05D0  1803               	skipnc
  1273  05D1  2DD3               	goto	u1551
  1274  05D2  2DD4               	goto	u1550
  1275  05D3                     u1551:
  1276  05D3  2E18               	goto	l1606
  1277  05D4                     u1550:
  1278  05D4                     l1572:
  1279  05D4  1F3D               	btfss	___fladd@signs,6
  1280  05D5  2DD7               	goto	u1561
  1281  05D6  2DD8               	goto	u1560
  1282  05D7                     u1561:
  1283  05D7  2DDC               	goto	l1576
  1284  05D8                     u1560:
  1285  05D8                     l1574:
  1286  05D8  3080               	movlw	128
  1287  05D9  00B5               	movwf	??___fladd
  1288  05DA  0835               	movf	??___fladd,w
  1289  05DB  06BD               	xorwf	___fladd@signs,f
  1290  05DC                     l1576:
  1291  05DC  083F               	movf	___fladd@bexp,w
  1292  05DD  00B5               	movwf	??___fladd
  1293  05DE  0835               	movf	??___fladd,w
  1294  05DF  00C0               	movwf	___fladd@grs
  1295  05E0                     l1578:
  1296  05E0  083E               	movf	___fladd@aexp,w
  1297  05E1  00B5               	movwf	??___fladd
  1298  05E2  0835               	movf	??___fladd,w
  1299  05E3  00BF               	movwf	___fladd@bexp
  1300  05E4                     l1580:
  1301  05E4  0840               	movf	___fladd@grs,w
  1302  05E5  00B5               	movwf	??___fladd
  1303  05E6  0835               	movf	??___fladd,w
  1304  05E7  00BE               	movwf	___fladd@aexp
  1305  05E8                     l1582:
  1306  05E8  082D               	movf	___fladd@b,w
  1307  05E9  00B5               	movwf	??___fladd
  1308  05EA  0835               	movf	??___fladd,w
  1309  05EB  00C0               	movwf	___fladd@grs
  1310  05EC                     l1584:
  1311  05EC  0831               	movf	___fladd@a,w
  1312  05ED  00B5               	movwf	??___fladd
  1313  05EE  0835               	movf	??___fladd,w
  1314  05EF  00AD               	movwf	___fladd@b
  1315  05F0                     l1586:
  1316  05F0  0840               	movf	___fladd@grs,w
  1317  05F1  00B5               	movwf	??___fladd
  1318  05F2  0835               	movf	??___fladd,w
  1319  05F3  00B1               	movwf	___fladd@a
  1320  05F4                     l1588:
  1321  05F4  082E               	movf	___fladd@b+1,w
  1322  05F5  00B5               	movwf	??___fladd
  1323  05F6  0835               	movf	??___fladd,w
  1324  05F7  00C0               	movwf	___fladd@grs
  1325  05F8                     l1590:
  1326  05F8  0832               	movf	___fladd@a+1,w
  1327  05F9  00B5               	movwf	??___fladd
  1328  05FA  0835               	movf	??___fladd,w
  1329  05FB  00AE               	movwf	___fladd@b+1
  1330  05FC                     l1592:
  1331  05FC  0840               	movf	___fladd@grs,w
  1332  05FD  00B5               	movwf	??___fladd
  1333  05FE  0835               	movf	??___fladd,w
  1334  05FF  00B2               	movwf	___fladd@a+1
  1335  0600                     l1594:
  1336  0600  082F               	movf	___fladd@b+2,w
  1337  0601  00B5               	movwf	??___fladd
  1338  0602  0835               	movf	??___fladd,w
  1339  0603  00C0               	movwf	___fladd@grs
  1340  0604                     l1596:
  1341  0604  0833               	movf	___fladd@a+2,w
  1342  0605  00B5               	movwf	??___fladd
  1343  0606  0835               	movf	??___fladd,w
  1344  0607  00AF               	movwf	___fladd@b+2
  1345  0608                     l1598:
  1346  0608  0840               	movf	___fladd@grs,w
  1347  0609  00B5               	movwf	??___fladd
  1348  060A  0835               	movf	??___fladd,w
  1349  060B  00B3               	movwf	___fladd@a+2
  1350  060C                     l1600:
  1351  060C  0830               	movf	___fladd@b+3,w
  1352  060D  00B5               	movwf	??___fladd
  1353  060E  0835               	movf	??___fladd,w
  1354  060F  00C0               	movwf	___fladd@grs
  1355  0610                     l1602:
  1356  0610  0834               	movf	___fladd@a+3,w
  1357  0611  00B5               	movwf	??___fladd
  1358  0612  0835               	movf	??___fladd,w
  1359  0613  00B0               	movwf	___fladd@b+3
  1360  0614                     l1604:
  1361  0614  0840               	movf	___fladd@grs,w
  1362  0615  00B5               	movwf	??___fladd
  1363  0616  0835               	movf	??___fladd,w
  1364  0617  00B4               	movwf	___fladd@a+3
  1365  0618                     l1606:
  1366  0618  01C0               	clrf	___fladd@grs
  1367  0619                     l1608:
  1368  0619  083E               	movf	___fladd@aexp,w
  1369  061A  00B5               	movwf	??___fladd
  1370  061B  01B6               	clrf	??___fladd+1
  1371  061C  0836               	movf	??___fladd+1,w
  1372  061D  00B8               	movwf	??___fladd+3
  1373  061E  083F               	movf	___fladd@bexp,w
  1374  061F  0235               	subwf	??___fladd,w
  1375  0620  00B7               	movwf	??___fladd+2
  1376  0621  1C03               	skipc
  1377  0622  03B8               	decf	??___fladd+3,f
  1378  0623  0838               	movf	??___fladd+3,w
  1379  0624  3A80               	xorlw	128
  1380  0625  00FF               	movwf	btemp+1
  1381  0626  3080               	movlw	128
  1382  0627  027F               	subwf	btemp+1,w
  1383  0628  1D03               	skipz
  1384  0629  2E2C               	goto	u1575
  1385  062A  301A               	movlw	26
  1386  062B  0237               	subwf	??___fladd+2,w
  1387  062C                     u1575:
  1388  062C  1C03               	skipc
  1389  062D  2E2F               	goto	u1571
  1390  062E  2E30               	goto	u1570
  1391  062F                     u1571:
  1392  062F  2E6D               	goto	l1624
  1393  0630                     u1570:
  1394  0630                     l1610:
  1395  0630  1283               	bcf	3,5	;RP0=0, select bank0
  1396  0631  1303               	bcf	3,6	;RP1=0, select bank0
  1397  0632  0830               	movf	___fladd@b+3,w
  1398  0633  042F               	iorwf	___fladd@b+2,w
  1399  0634  042E               	iorwf	___fladd@b+1,w
  1400  0635  042D               	iorwf	___fladd@b,w
  1401  0636  1D03               	skipz
  1402  0637  2E39               	goto	u1581
  1403  0638  2E3B               	goto	u1580
  1404  0639                     u1581:
  1405  0639  3001               	movlw	1
  1406  063A  2E3C               	goto	u1590
  1407  063B                     u1580:
  1408  063B  3000               	movlw	0
  1409  063C                     u1590:
  1410  063C  00B5               	movwf	??___fladd
  1411  063D  0835               	movf	??___fladd,w
  1412  063E  00C0               	movwf	___fladd@grs
  1413  063F  3000               	movlw	0
  1414  0640  00B0               	movwf	___fladd@b+3
  1415  0641  3000               	movlw	0
  1416  0642  00AF               	movwf	___fladd@b+2
  1417  0643  3000               	movlw	0
  1418  0644  00AE               	movwf	___fladd@b+1
  1419  0645  3000               	movlw	0
  1420  0646  00AD               	movwf	___fladd@b
  1421  0647  083E               	movf	___fladd@aexp,w
  1422  0648  00B5               	movwf	??___fladd
  1423  0649  0835               	movf	??___fladd,w
  1424  064A  00BF               	movwf	___fladd@bexp
  1425  064B  2E75               	goto	l545
  1426  064C                     l547:
  1427  064C  1C40               	btfss	___fladd@grs,0
  1428  064D  2E4F               	goto	u1601
  1429  064E  2E50               	goto	u1600
  1430  064F                     u1601:
  1431  064F  2E59               	goto	l1614
  1432  0650                     u1600:
  1433  0650                     l1612:
  1434  0650  0840               	movf	___fladd@grs,w
  1435  0651  00B5               	movwf	??___fladd
  1436  0652  1003               	clrc
  1437  0653  0C35               	rrf	??___fladd,w
  1438  0654  3801               	iorlw	1
  1439  0655  00B6               	movwf	??___fladd+1
  1440  0656  0836               	movf	??___fladd+1,w
  1441  0657  00C0               	movwf	___fladd@grs
  1442  0658  2E5B               	goto	l1616
  1443  0659                     l1614:
  1444  0659  1003               	clrc
  1445  065A  0CC0               	rrf	___fladd@grs,f
  1446  065B                     l1616:
  1447  065B  1C2D               	btfss	___fladd@b,0
  1448  065C  2E5E               	goto	u1611
  1449  065D  2E5F               	goto	u1610
  1450  065E                     u1611:
  1451  065E  2E60               	goto	l1620
  1452  065F                     u1610:
  1453  065F                     l1618:
  1454  065F  17C0               	bsf	___fladd@grs,7
  1455  0660                     l1620:
  1456  0660  3001               	movlw	1
  1457  0661  00B5               	movwf	??___fladd
  1458  0662                     u1625:
  1459  0662  0D30               	rlf	___fladd@b+3,w
  1460  0663  0CB0               	rrf	___fladd@b+3,f
  1461  0664  0CAF               	rrf	___fladd@b+2,f
  1462  0665  0CAE               	rrf	___fladd@b+1,f
  1463  0666  0CAD               	rrf	___fladd@b,f
  1464  0667  0BB5               	decfsz	??___fladd& (0+127),f
  1465  0668  2E62               	goto	u1625
  1466  0669                     l1622:
  1467  0669  3001               	movlw	1
  1468  066A  00B5               	movwf	??___fladd
  1469  066B  0835               	movf	??___fladd,w
  1470  066C  07BF               	addwf	___fladd@bexp,f
  1471  066D                     l1624:
  1472  066D  1283               	bcf	3,5	;RP0=0, select bank0
  1473  066E  1303               	bcf	3,6	;RP1=0, select bank0
  1474  066F  083E               	movf	___fladd@aexp,w
  1475  0670  023F               	subwf	___fladd@bexp,w
  1476  0671  1C03               	skipc
  1477  0672  2E74               	goto	u1631
  1478  0673  2E75               	goto	u1630
  1479  0674                     u1631:
  1480  0674  2E4C               	goto	l547
  1481  0675                     u1630:
  1482  0675                     l545:
  1483  0675  1B3D               	btfsc	___fladd@signs,6
  1484  0676  2E78               	goto	u1641
  1485  0677  2E79               	goto	u1640
  1486  0678                     u1641:
  1487  0678  2EC4               	goto	l1650
  1488  0679                     u1640:
  1489  0679                     l1626:
  1490  0679  083F               	movf	___fladd@bexp,w
  1491  067A  1D03               	btfss	3,2
  1492  067B  2E7D               	goto	u1651
  1493  067C  2E7E               	goto	u1650
  1494  067D                     u1651:
  1495  067D  2E87               	goto	l1632
  1496  067E                     u1650:
  1497  067E                     l1628:
  1498  067E  3000               	movlw	0
  1499  067F  00B0               	movwf	?___fladd+3
  1500  0680  3000               	movlw	0
  1501  0681  00AF               	movwf	?___fladd+2
  1502  0682  3000               	movlw	0
  1503  0683  00AE               	movwf	?___fladd+1
  1504  0684  3000               	movlw	0
  1505  0685  00AD               	movwf	?___fladd
  1506  0686  2FF2               	goto	l554
  1507  0687                     l1632:
  1508  0687  0831               	movf	___fladd@a,w
  1509  0688  07AD               	addwf	___fladd@b,f
  1510  0689  0832               	movf	___fladd@a+1,w
  1511  068A  1103               	clrz
  1512  068B  1803               	skipnc
  1513  068C  3E01               	addlw	1
  1514  068D  1903               	skipnz
  1515  068E  2E90               	goto	u1661
  1516  068F  07AE               	addwf	___fladd@b+1,f
  1517  0690                     u1661:
  1518  0690  0833               	movf	___fladd@a+2,w
  1519  0691  1103               	clrz
  1520  0692  1803               	skipnc
  1521  0693  3E01               	addlw	1
  1522  0694  1903               	skipnz
  1523  0695  2E97               	goto	u1662
  1524  0696  07AF               	addwf	___fladd@b+2,f
  1525  0697                     u1662:
  1526  0697  0834               	movf	___fladd@a+3,w
  1527  0698  1103               	clrz
  1528  0699  1803               	skipnc
  1529  069A  3E01               	addlw	1
  1530  069B  1903               	skipnz
  1531  069C  2E9E               	goto	u1663
  1532  069D  07B0               	addwf	___fladd@b+3,f
  1533  069E                     u1663:
  1534  069E                     l1634:
  1535  069E  1C30               	btfss	___fladd@b+3,0
  1536  069F  2EA1               	goto	u1671
  1537  06A0  2EA2               	goto	u1670
  1538  06A1                     u1671:
  1539  06A1  2F78               	goto	l1684
  1540  06A2                     u1670:
  1541  06A2                     l1636:
  1542  06A2  1C40               	btfss	___fladd@grs,0
  1543  06A3  2EA5               	goto	u1681
  1544  06A4  2EA6               	goto	u1680
  1545  06A5                     u1681:
  1546  06A5  2EAF               	goto	l1640
  1547  06A6                     u1680:
  1548  06A6                     l1638:
  1549  06A6  0840               	movf	___fladd@grs,w
  1550  06A7  00B5               	movwf	??___fladd
  1551  06A8  1003               	clrc
  1552  06A9  0C35               	rrf	??___fladd,w
  1553  06AA  3801               	iorlw	1
  1554  06AB  00B6               	movwf	??___fladd+1
  1555  06AC  0836               	movf	??___fladd+1,w
  1556  06AD  00C0               	movwf	___fladd@grs
  1557  06AE  2EB1               	goto	l1642
  1558  06AF                     l1640:
  1559  06AF  1003               	clrc
  1560  06B0  0CC0               	rrf	___fladd@grs,f
  1561  06B1                     l1642:
  1562  06B1  1C2D               	btfss	___fladd@b,0
  1563  06B2  2EB4               	goto	u1691
  1564  06B3  2EB5               	goto	u1690
  1565  06B4                     u1691:
  1566  06B4  2EB6               	goto	l1646
  1567  06B5                     u1690:
  1568  06B5                     l1644:
  1569  06B5  17C0               	bsf	___fladd@grs,7
  1570  06B6                     l1646:
  1571  06B6  3001               	movlw	1
  1572  06B7  00B5               	movwf	??___fladd
  1573  06B8                     u1705:
  1574  06B8  0D30               	rlf	___fladd@b+3,w
  1575  06B9  0CB0               	rrf	___fladd@b+3,f
  1576  06BA  0CAF               	rrf	___fladd@b+2,f
  1577  06BB  0CAE               	rrf	___fladd@b+1,f
  1578  06BC  0CAD               	rrf	___fladd@b,f
  1579  06BD  0BB5               	decfsz	??___fladd& (0+127),f
  1580  06BE  2EB8               	goto	u1705
  1581  06BF                     l1648:
  1582  06BF  3001               	movlw	1
  1583  06C0  00B5               	movwf	??___fladd
  1584  06C1  0835               	movf	??___fladd,w
  1585  06C2  07BF               	addwf	___fladd@bexp,f
  1586  06C3  2F78               	goto	l1684
  1587  06C4                     l1650:
  1588  06C4  0830               	movf	___fladd@b+3,w
  1589  06C5  3A80               	xorlw	128
  1590  06C6  00FF               	movwf	btemp+1
  1591  06C7  0834               	movf	___fladd@a+3,w
  1592  06C8  3A80               	xorlw	128
  1593  06C9  027F               	subwf	btemp+1,w
  1594  06CA  1D03               	skipz
  1595  06CB  2ED6               	goto	u1713
  1596  06CC  0833               	movf	___fladd@a+2,w
  1597  06CD  022F               	subwf	___fladd@b+2,w
  1598  06CE  1D03               	skipz
  1599  06CF  2ED6               	goto	u1713
  1600  06D0  0832               	movf	___fladd@a+1,w
  1601  06D1  022E               	subwf	___fladd@b+1,w
  1602  06D2  1D03               	skipz
  1603  06D3  2ED6               	goto	u1713
  1604  06D4  0831               	movf	___fladd@a,w
  1605  06D5  022D               	subwf	___fladd@b,w
  1606  06D6                     u1713:
  1607  06D6  1803               	skipnc
  1608  06D7  2ED9               	goto	u1711
  1609  06D8  2EDA               	goto	u1710
  1610  06D9                     u1711:
  1611  06D9  2F32               	goto	l1660
  1612  06DA                     u1710:
  1613  06DA                     l1652:
  1614  06DA  30FF               	movlw	255
  1615  06DB  00B5               	movwf	??___fladd
  1616  06DC  30FF               	movlw	255
  1617  06DD  00B6               	movwf	??___fladd+1
  1618  06DE  30FF               	movlw	255
  1619  06DF  00B7               	movwf	??___fladd+2
  1620  06E0  30FF               	movlw	255
  1621  06E1  00B8               	movwf	??___fladd+3
  1622  06E2  0831               	movf	___fladd@a,w
  1623  06E3  00B9               	movwf	??___fladd+4
  1624  06E4  0832               	movf	___fladd@a+1,w
  1625  06E5  00BA               	movwf	??___fladd+5
  1626  06E6  0833               	movf	___fladd@a+2,w
  1627  06E7  00BB               	movwf	??___fladd+6
  1628  06E8  0834               	movf	___fladd@a+3,w
  1629  06E9  00BC               	movwf	??___fladd+7
  1630  06EA  082D               	movf	___fladd@b,w
  1631  06EB  02B9               	subwf	??___fladd+4,f
  1632  06EC  082E               	movf	___fladd@b+1,w
  1633  06ED  1C03               	skipc
  1634  06EE  0F2E               	incfsz	___fladd@b+1,w
  1635  06EF  2EF1               	goto	u1721
  1636  06F0  2EF2               	goto	u1722
  1637  06F1                     u1721:
  1638  06F1  02BA               	subwf	??___fladd+5,f
  1639  06F2                     u1722:
  1640  06F2  082F               	movf	___fladd@b+2,w
  1641  06F3  1C03               	skipc
  1642  06F4  0F2F               	incfsz	___fladd@b+2,w
  1643  06F5  2EF7               	goto	u1723
  1644  06F6  2EF8               	goto	u1724
  1645  06F7                     u1723:
  1646  06F7  02BB               	subwf	??___fladd+6,f
  1647  06F8                     u1724:
  1648  06F8  0830               	movf	___fladd@b+3,w
  1649  06F9  1C03               	skipc
  1650  06FA  0F30               	incfsz	___fladd@b+3,w
  1651  06FB  2EFD               	goto	u1725
  1652  06FC  2EFE               	goto	u1726
  1653  06FD                     u1725:
  1654  06FD  02BC               	subwf	??___fladd+7,f
  1655  06FE                     u1726:
  1656  06FE  0839               	movf	??___fladd+4,w
  1657  06FF  07B5               	addwf	??___fladd,f
  1658  0700  083A               	movf	??___fladd+5,w
  1659  0701  1803               	skipnc
  1660  0702  0F3A               	incfsz	??___fladd+5,w
  1661  0703  2F05               	goto	u1730
  1662  0704  2F06               	goto	u1731
  1663  0705                     u1730:
  1664  0705  07B6               	addwf	??___fladd+1,f
  1665  0706                     u1731:
  1666  0706  083B               	movf	??___fladd+6,w
  1667  0707  1803               	skipnc
  1668  0708  0F3B               	incfsz	??___fladd+6,w
  1669  0709  2F0B               	goto	u1732
  1670  070A  2F0C               	goto	u1733
  1671  070B                     u1732:
  1672  070B  07B7               	addwf	??___fladd+2,f
  1673  070C                     u1733:
  1674  070C  083C               	movf	??___fladd+7,w
  1675  070D  1803               	skipnc
  1676  070E  0A3C               	incf	??___fladd+7,w
  1677  070F  07B8               	addwf	??___fladd+3,f
  1678  0710  0838               	movf	??___fladd+3,w
  1679  0711  00B0               	movwf	___fladd@b+3
  1680  0712  0837               	movf	??___fladd+2,w
  1681  0713  00AF               	movwf	___fladd@b+2
  1682  0714  0836               	movf	??___fladd+1,w
  1683  0715  00AE               	movwf	___fladd@b+1
  1684  0716  0835               	movf	??___fladd,w
  1685  0717  00AD               	movwf	___fladd@b
  1686  0718                     l1654:
  1687  0718  3080               	movlw	128
  1688  0719  00B5               	movwf	??___fladd
  1689  071A  0835               	movf	??___fladd,w
  1690  071B  06BD               	xorwf	___fladd@signs,f
  1691  071C  09C0               	comf	___fladd@grs,f
  1692  071D  0AC0               	incf	___fladd@grs,f
  1693  071E                     l1656:
  1694  071E  0840               	movf	___fladd@grs,w
  1695  071F  1D03               	btfss	3,2
  1696  0720  2F22               	goto	u1741
  1697  0721  2F23               	goto	u1740
  1698  0722                     u1741:
  1699  0722  2F40               	goto	l562
  1700  0723                     u1740:
  1701  0723                     l1658:
  1702  0723  3001               	movlw	1
  1703  0724  07AD               	addwf	___fladd@b,f
  1704  0725  3000               	movlw	0
  1705  0726  1803               	skipnc
  1706  0727  3001               	movlw	1
  1707  0728  07AE               	addwf	___fladd@b+1,f
  1708  0729  3000               	movlw	0
  1709  072A  1803               	skipnc
  1710  072B  3001               	movlw	1
  1711  072C  07AF               	addwf	___fladd@b+2,f
  1712  072D  3000               	movlw	0
  1713  072E  1803               	skipnc
  1714  072F  3001               	movlw	1
  1715  0730  07B0               	addwf	___fladd@b+3,f
  1716  0731  2F40               	goto	l562
  1717  0732                     l1660:
  1718  0732  0831               	movf	___fladd@a,w
  1719  0733  02AD               	subwf	___fladd@b,f
  1720  0734  0832               	movf	___fladd@a+1,w
  1721  0735  1C03               	skipc
  1722  0736  0F32               	incfsz	___fladd@a+1,w
  1723  0737  02AE               	subwf	___fladd@b+1,f
  1724  0738  0833               	movf	___fladd@a+2,w
  1725  0739  1C03               	skipc
  1726  073A  0F33               	incfsz	___fladd@a+2,w
  1727  073B  02AF               	subwf	___fladd@b+2,f
  1728  073C  0834               	movf	___fladd@a+3,w
  1729  073D  1C03               	skipc
  1730  073E  0F34               	incfsz	___fladd@a+3,w
  1731  073F  02B0               	subwf	___fladd@b+3,f
  1732  0740                     l562:
  1733  0740  0830               	movf	___fladd@b+3,w
  1734  0741  042F               	iorwf	___fladd@b+2,w
  1735  0742  042E               	iorwf	___fladd@b+1,w
  1736  0743  042D               	iorwf	___fladd@b,w
  1737  0744  1D03               	skipz
  1738  0745  2F47               	goto	u1751
  1739  0746  2F48               	goto	u1750
  1740  0747                     u1751:
  1741  0747  2F74               	goto	l1682
  1742  0748                     u1750:
  1743  0748                     l1662:
  1744  0748  0840               	movf	___fladd@grs,w
  1745  0749  1D03               	btfss	3,2
  1746  074A  2F4C               	goto	u1761
  1747  074B  2F4D               	goto	u1760
  1748  074C                     u1761:
  1749  074C  2F74               	goto	l1682
  1750  074D                     u1760:
  1751  074D                     l1664:
  1752  074D  3000               	movlw	0
  1753  074E  00B0               	movwf	?___fladd+3
  1754  074F  3000               	movlw	0
  1755  0750  00AF               	movwf	?___fladd+2
  1756  0751  3000               	movlw	0
  1757  0752  00AE               	movwf	?___fladd+1
  1758  0753  3000               	movlw	0
  1759  0754  00AD               	movwf	?___fladd
  1760  0755  2FF2               	goto	l554
  1761  0756                     l1668:
  1762  0756  3001               	movlw	1
  1763  0757  00B5               	movwf	??___fladd
  1764  0758                     u1775:
  1765  0758  1003               	clrc
  1766  0759  0DAD               	rlf	___fladd@b,f
  1767  075A  0DAE               	rlf	___fladd@b+1,f
  1768  075B  0DAF               	rlf	___fladd@b+2,f
  1769  075C  0DB0               	rlf	___fladd@b+3,f
  1770  075D  0BB5               	decfsz	??___fladd,f
  1771  075E  2F58               	goto	u1775
  1772  075F                     l1670:
  1773  075F  1FC0               	btfss	___fladd@grs,7
  1774  0760  2F62               	goto	u1781
  1775  0761  2F63               	goto	u1780
  1776  0762                     u1781:
  1777  0762  2F64               	goto	l566
  1778  0763                     u1780:
  1779  0763                     l1672:
  1780  0763  142D               	bsf	___fladd@b,0
  1781  0764                     l566:
  1782  0764  1C40               	btfss	___fladd@grs,0
  1783  0765  2F67               	goto	u1791
  1784  0766  2F68               	goto	u1790
  1785  0767                     u1791:
  1786  0767  2F6B               	goto	l1676
  1787  0768                     u1790:
  1788  0768                     l1674:
  1789  0768  1403               	setc
  1790  0769  0DC0               	rlf	___fladd@grs,f
  1791  076A  2F6D               	goto	l1678
  1792  076B                     l1676:
  1793  076B  1003               	clrc
  1794  076C  0DC0               	rlf	___fladd@grs,f
  1795  076D                     l1678:
  1796  076D  083F               	movf	___fladd@bexp,w
  1797  076E  1903               	btfsc	3,2
  1798  076F  2F71               	goto	u1801
  1799  0770  2F72               	goto	u1800
  1800  0771                     u1801:
  1801  0771  2F74               	goto	l1682
  1802  0772                     u1800:
  1803  0772                     l1680:
  1804  0772  3001               	movlw	1
  1805  0773  02BF               	subwf	___fladd@bexp,f
  1806  0774                     l1682:
  1807  0774  1FAF               	btfss	___fladd@b+2,7
  1808  0775  2F77               	goto	u1811
  1809  0776  2F78               	goto	u1810
  1810  0777                     u1811:
  1811  0777  2F56               	goto	l1668
  1812  0778                     u1810:
  1813  0778                     l1684:
  1814  0778  01BE               	clrf	___fladd@aexp
  1815  0779                     l1686:
  1816  0779  1FC0               	btfss	___fladd@grs,7
  1817  077A  2F7C               	goto	u1821
  1818  077B  2F7D               	goto	u1820
  1819  077C                     u1821:
  1820  077C  2F8B               	goto	l1694
  1821  077D                     u1820:
  1822  077D                     l1688:
  1823  077D  0840               	movf	___fladd@grs,w
  1824  077E  397F               	andlw	127
  1825  077F  1903               	btfsc	3,2
  1826  0780  2F82               	goto	u1831
  1827  0781  2F83               	goto	u1830
  1828  0782                     u1831:
  1829  0782  2F86               	goto	l572
  1830  0783                     u1830:
  1831  0783                     l1690:
  1832  0783  01BE               	clrf	___fladd@aexp
  1833  0784  0ABE               	incf	___fladd@aexp,f
  1834  0785  2F8B               	goto	l1694
  1835  0786                     l572:
  1836  0786  1C2D               	btfss	___fladd@b,0
  1837  0787  2F89               	goto	u1841
  1838  0788  2F8A               	goto	u1840
  1839  0789                     u1841:
  1840  0789  2F8B               	goto	l1694
  1841  078A                     u1840:
  1842  078A  2F83               	goto	l1690
  1843  078B                     l1694:
  1844  078B  083E               	movf	___fladd@aexp,w
  1845  078C  1903               	btfsc	3,2
  1846  078D  2F8F               	goto	u1851
  1847  078E  2F90               	goto	u1850
  1848  078F                     u1851:
  1849  078F  2FC4               	goto	l575
  1850  0790                     u1850:
  1851  0790                     l1696:
  1852  0790  3001               	movlw	1
  1853  0791  07AD               	addwf	___fladd@b,f
  1854  0792  3000               	movlw	0
  1855  0793  1803               	skipnc
  1856  0794  3001               	movlw	1
  1857  0795  07AE               	addwf	___fladd@b+1,f
  1858  0796  3000               	movlw	0
  1859  0797  1803               	skipnc
  1860  0798  3001               	movlw	1
  1861  0799  07AF               	addwf	___fladd@b+2,f
  1862  079A  3000               	movlw	0
  1863  079B  1803               	skipnc
  1864  079C  3001               	movlw	1
  1865  079D  07B0               	addwf	___fladd@b+3,f
  1866  079E                     l1698:
  1867  079E  1C30               	btfss	___fladd@b+3,0
  1868  079F  2FA1               	goto	u1861
  1869  07A0  2FA2               	goto	u1860
  1870  07A1                     u1861:
  1871  07A1  2FC4               	goto	l575
  1872  07A2                     u1860:
  1873  07A2                     l1700:
  1874  07A2  082D               	movf	___fladd@b,w
  1875  07A3  00B5               	movwf	??___fladd
  1876  07A4  082E               	movf	___fladd@b+1,w
  1877  07A5  00B6               	movwf	??___fladd+1
  1878  07A6  082F               	movf	___fladd@b+2,w
  1879  07A7  00B7               	movwf	??___fladd+2
  1880  07A8  0830               	movf	___fladd@b+3,w
  1881  07A9  00B8               	movwf	??___fladd+3
  1882  07AA  3001               	movlw	1
  1883  07AB  00B9               	movwf	??___fladd+4
  1884  07AC                     u1875:
  1885  07AC  0D38               	rlf	??___fladd+3,w
  1886  07AD  0CB8               	rrf	??___fladd+3,f
  1887  07AE  0CB7               	rrf	??___fladd+2,f
  1888  07AF  0CB6               	rrf	??___fladd+1,f
  1889  07B0  0CB5               	rrf	??___fladd,f
  1890  07B1                     u1870:
  1891  07B1  0BB9               	decfsz	??___fladd+4,f
  1892  07B2  2FAC               	goto	u1875
  1893  07B3  0838               	movf	??___fladd+3,w
  1894  07B4  00B0               	movwf	___fladd@b+3
  1895  07B5  0837               	movf	??___fladd+2,w
  1896  07B6  00AF               	movwf	___fladd@b+2
  1897  07B7  0836               	movf	??___fladd+1,w
  1898  07B8  00AE               	movwf	___fladd@b+1
  1899  07B9  0835               	movf	??___fladd,w
  1900  07BA  00AD               	movwf	___fladd@b
  1901  07BB  0A3F               	incf	___fladd@bexp,w
  1902  07BC  1903               	btfsc	3,2
  1903  07BD  2FBF               	goto	u1881
  1904  07BE  2FC0               	goto	u1880
  1905  07BF                     u1881:
  1906  07BF  2FC4               	goto	l575
  1907  07C0                     u1880:
  1908  07C0                     l1702:
  1909  07C0  3001               	movlw	1
  1910  07C1  00B5               	movwf	??___fladd
  1911  07C2  0835               	movf	??___fladd,w
  1912  07C3  07BF               	addwf	___fladd@bexp,f
  1913  07C4                     l575:
  1914  07C4  0A3F               	incf	___fladd@bexp,w
  1915  07C5  1903               	btfsc	3,2
  1916  07C6  2FC8               	goto	u1891
  1917  07C7  2FC9               	goto	u1890
  1918  07C8                     u1891:
  1919  07C8  2FCE               	goto	l1706
  1920  07C9                     u1890:
  1921  07C9                     l1704:
  1922  07C9  083F               	movf	___fladd@bexp,w
  1923  07CA  1D03               	btfss	3,2
  1924  07CB  2FCD               	goto	u1901
  1925  07CC  2FCE               	goto	u1900
  1926  07CD                     u1901:
  1927  07CD  2FDC               	goto	l1712
  1928  07CE                     u1900:
  1929  07CE                     l1706:
  1930  07CE  3000               	movlw	0
  1931  07CF  00B0               	movwf	___fladd@b+3
  1932  07D0  3000               	movlw	0
  1933  07D1  00AF               	movwf	___fladd@b+2
  1934  07D2  3000               	movlw	0
  1935  07D3  00AE               	movwf	___fladd@b+1
  1936  07D4  3000               	movlw	0
  1937  07D5  00AD               	movwf	___fladd@b
  1938  07D6                     l1708:
  1939  07D6  083F               	movf	___fladd@bexp,w
  1940  07D7  1D03               	btfss	3,2
  1941  07D8  2FDA               	goto	u1911
  1942  07D9  2FDB               	goto	u1910
  1943  07DA                     u1911:
  1944  07DA  2FDC               	goto	l1712
  1945  07DB                     u1910:
  1946  07DB                     l1710:
  1947  07DB  01BD               	clrf	___fladd@signs
  1948  07DC                     l1712:
  1949  07DC  1C3F               	btfss	___fladd@bexp,0
  1950  07DD  2FDF               	goto	u1921
  1951  07DE  2FE0               	goto	u1920
  1952  07DF                     u1921:
  1953  07DF  2FE2               	goto	l1716
  1954  07E0                     u1920:
  1955  07E0                     l1714:
  1956  07E0  17AF               	bsf	___fladd@b+2,7
  1957  07E1  2FE6               	goto	l583
  1958  07E2                     l1716:
  1959  07E2  307F               	movlw	127
  1960  07E3  00B5               	movwf	??___fladd
  1961  07E4  0835               	movf	??___fladd,w
  1962  07E5  05AF               	andwf	___fladd@b+2,f
  1963  07E6                     l583:
  1964  07E6  083F               	movf	___fladd@bexp,w
  1965  07E7  00B5               	movwf	??___fladd
  1966  07E8  1003               	clrc
  1967  07E9  0C35               	rrf	??___fladd,w
  1968  07EA  00B6               	movwf	??___fladd+1
  1969  07EB  0836               	movf	??___fladd+1,w
  1970  07EC  00B0               	movwf	___fladd@b+3
  1971  07ED                     l1718:
  1972  07ED  1FBD               	btfss	___fladd@signs,7
  1973  07EE  2FF0               	goto	u1931
  1974  07EF  2FF1               	goto	u1930
  1975  07F0                     u1931:
  1976  07F0  2FF2               	goto	l584
  1977  07F1                     u1930:
  1978  07F1                     l1720:
  1979  07F1  17B0               	bsf	___fladd@b+3,7
  1980  07F2                     l584:
  1981  07F2                     l554:
  1982  07F2  0008               	return
  1983  07F3                     __end_of___fladd:
  1984                           
  1985                           	psect	text5
  1986  0F12                     __ptext5:	
  1987 ;; *************** function _MPU6050_GetGyroZ *****************
  1988 ;; Defined at:
  1989 ;;		line 123 in file "./MPU6050.h"
  1990 ;; Parameters:    Size  Location     Type
  1991 ;;		None
  1992 ;; Auto vars:     Size  Location     Type
  1993 ;;  raw_value       4   19[BANK0 ] unsigned char 
  1994 ;; Return value:  Size  Location     Type
  1995 ;;                  4   15[BANK0 ] unsigned char 
  1996 ;; Registers used:
  1997 ;;		wreg, fsr0l, fsr0h, status,2, status,0, btemp+1, pclath, cstack
  1998 ;; Tracked objects:
  1999 ;;		On entry : 0/0
  2000 ;;		On exit  : 0/0
  2001 ;;		Unchanged: 0/0
  2002 ;; Data sizes:     COMMON   BANK0   BANK1   BANK3   BANK2
  2003 ;;      Params:         0       4       0       0       0
  2004 ;;      Locals:         0       4       0       0       0
  2005 ;;      Temps:          0       0       0       0       0
  2006 ;;      Totals:         0       8       0       0       0
  2007 ;;Total ram usage:        8 bytes
  2008 ;; Hardware stack levels used: 1
  2009 ;; Hardware stack levels required when called: 5
  2010 ;; This function calls:
  2011 ;;		_MPU6050_Get16BitRegister
  2012 ;;		___fldiv
  2013 ;; This function is called by:
  2014 ;;		_main
  2015 ;; This function uses a non-reentrant model
  2016 ;;
  2017                           
  2018                           
  2019                           ;psect for function _MPU6050_GetGyroZ
  2020  0F12                     _MPU6050_GetGyroZ:
  2021  0F12                     l1924:	
  2022                           ;incstack = 0
  2023                           ; Regs used in _MPU6050_GetGyroZ: [wreg-fsr0h+status,2+status,0+btemp+1+pclath+cstack]
  2024                           
  2025                           
  2026                           ;./MPU6050.h: 124:     double raw_value = MPU6050_Get16BitRegister(0x47);
  2027  0F12  3047               	movlw	71
  2028  0F13  120A  158A  2775  120A  158A  	fcall	_MPU6050_Get16BitRegister
  2029  0F18  1283               	bcf	3,5	;RP0=0, select bank0
  2030  0F19  1303               	bcf	3,6	;RP1=0, select bank0
  2031  0F1A  0829               	movf	?_MPU6050_Get16BitRegister+3,w
  2032  0F1B  00B6               	movwf	MPU6050_GetGyroZ@raw_value+3
  2033  0F1C  0828               	movf	?_MPU6050_Get16BitRegister+2,w
  2034  0F1D  00B5               	movwf	MPU6050_GetGyroZ@raw_value+2
  2035  0F1E  0827               	movf	?_MPU6050_Get16BitRegister+1,w
  2036  0F1F  00B4               	movwf	MPU6050_GetGyroZ@raw_value+1
  2037  0F20  0826               	movf	?_MPU6050_Get16BitRegister,w
  2038  0F21  00B3               	movwf	MPU6050_GetGyroZ@raw_value
  2039  0F22                     l1926:
  2040                           
  2041                           ;./MPU6050.h: 125:     return raw_value / 131.0;
  2042  0F22  3043               	movlw	67
  2043  0F23  00F4               	movwf	___fldiv@a+3
  2044  0F24  3003               	movlw	3
  2045  0F25  00F3               	movwf	___fldiv@a+2
  2046  0F26  3000               	movlw	0
  2047  0F27  00F2               	movwf	___fldiv@a+1
  2048  0F28  3000               	movlw	0
  2049  0F29  00F1               	movwf	___fldiv@a
  2050  0F2A  0836               	movf	MPU6050_GetGyroZ@raw_value+3,w
  2051  0F2B  00F8               	movwf	___fldiv@b+3
  2052  0F2C  0835               	movf	MPU6050_GetGyroZ@raw_value+2,w
  2053  0F2D  00F7               	movwf	___fldiv@b+2
  2054  0F2E  0834               	movf	MPU6050_GetGyroZ@raw_value+1,w
  2055  0F2F  00F6               	movwf	___fldiv@b+1
  2056  0F30  0833               	movf	MPU6050_GetGyroZ@raw_value,w
  2057  0F31  00F5               	movwf	___fldiv@b
  2058  0F32  120A  118A  2388  120A  158A  	fcall	___fldiv
  2059  0F37  0874               	movf	?___fldiv+3,w
  2060  0F38  1283               	bcf	3,5	;RP0=0, select bank0
  2061  0F39  1303               	bcf	3,6	;RP1=0, select bank0
  2062  0F3A  00B2               	movwf	?_MPU6050_GetGyroZ+3
  2063  0F3B  0873               	movf	?___fldiv+2,w
  2064  0F3C  00B1               	movwf	?_MPU6050_GetGyroZ+2
  2065  0F3D  0872               	movf	?___fldiv+1,w
  2066  0F3E  00B0               	movwf	?_MPU6050_GetGyroZ+1
  2067  0F3F  0871               	movf	?___fldiv,w
  2068  0F40  00AF               	movwf	?_MPU6050_GetGyroZ
  2069  0F41                     l134:
  2070  0F41  0008               	return
  2071  0F42                     __end_of_MPU6050_GetGyroZ:
  2072                           
  2073                           	psect	text6
  2074  0EE2                     __ptext6:	
  2075 ;; *************** function _MPU6050_GetGyroY *****************
  2076 ;; Defined at:
  2077 ;;		line 118 in file "./MPU6050.h"
  2078 ;; Parameters:    Size  Location     Type
  2079 ;;		None
  2080 ;; Auto vars:     Size  Location     Type
  2081 ;;  raw_value       4   19[BANK0 ] unsigned char 
  2082 ;; Return value:  Size  Location     Type
  2083 ;;                  4   15[BANK0 ] unsigned char 
  2084 ;; Registers used:
  2085 ;;		wreg, fsr0l, fsr0h, status,2, status,0, btemp+1, pclath, cstack
  2086 ;; Tracked objects:
  2087 ;;		On entry : 0/0
  2088 ;;		On exit  : 0/0
  2089 ;;		Unchanged: 0/0
  2090 ;; Data sizes:     COMMON   BANK0   BANK1   BANK3   BANK2
  2091 ;;      Params:         0       4       0       0       0
  2092 ;;      Locals:         0       4       0       0       0
  2093 ;;      Temps:          0       0       0       0       0
  2094 ;;      Totals:         0       8       0       0       0
  2095 ;;Total ram usage:        8 bytes
  2096 ;; Hardware stack levels used: 1
  2097 ;; Hardware stack levels required when called: 5
  2098 ;; This function calls:
  2099 ;;		_MPU6050_Get16BitRegister
  2100 ;;		___fldiv
  2101 ;; This function is called by:
  2102 ;;		_main
  2103 ;; This function uses a non-reentrant model
  2104 ;;
  2105                           
  2106                           
  2107                           ;psect for function _MPU6050_GetGyroY
  2108  0EE2                     _MPU6050_GetGyroY:
  2109  0EE2                     l1918:	
  2110                           ;incstack = 0
  2111                           ; Regs used in _MPU6050_GetGyroY: [wreg-fsr0h+status,2+status,0+btemp+1+pclath+cstack]
  2112                           
  2113                           
  2114                           ;./MPU6050.h: 119:     double raw_value = MPU6050_Get16BitRegister(0x45);
  2115  0EE2  3045               	movlw	69
  2116  0EE3  120A  158A  2775  120A  158A  	fcall	_MPU6050_Get16BitRegister
  2117  0EE8  1283               	bcf	3,5	;RP0=0, select bank0
  2118  0EE9  1303               	bcf	3,6	;RP1=0, select bank0
  2119  0EEA  0829               	movf	?_MPU6050_Get16BitRegister+3,w
  2120  0EEB  00B6               	movwf	MPU6050_GetGyroY@raw_value+3
  2121  0EEC  0828               	movf	?_MPU6050_Get16BitRegister+2,w
  2122  0EED  00B5               	movwf	MPU6050_GetGyroY@raw_value+2
  2123  0EEE  0827               	movf	?_MPU6050_Get16BitRegister+1,w
  2124  0EEF  00B4               	movwf	MPU6050_GetGyroY@raw_value+1
  2125  0EF0  0826               	movf	?_MPU6050_Get16BitRegister,w
  2126  0EF1  00B3               	movwf	MPU6050_GetGyroY@raw_value
  2127  0EF2                     l1920:
  2128                           
  2129                           ;./MPU6050.h: 120:     return raw_value / 131.0;
  2130  0EF2  3043               	movlw	67
  2131  0EF3  00F4               	movwf	___fldiv@a+3
  2132  0EF4  3003               	movlw	3
  2133  0EF5  00F3               	movwf	___fldiv@a+2
  2134  0EF6  3000               	movlw	0
  2135  0EF7  00F2               	movwf	___fldiv@a+1
  2136  0EF8  3000               	movlw	0
  2137  0EF9  00F1               	movwf	___fldiv@a
  2138  0EFA  0836               	movf	MPU6050_GetGyroY@raw_value+3,w
  2139  0EFB  00F8               	movwf	___fldiv@b+3
  2140  0EFC  0835               	movf	MPU6050_GetGyroY@raw_value+2,w
  2141  0EFD  00F7               	movwf	___fldiv@b+2
  2142  0EFE  0834               	movf	MPU6050_GetGyroY@raw_value+1,w
  2143  0EFF  00F6               	movwf	___fldiv@b+1
  2144  0F00  0833               	movf	MPU6050_GetGyroY@raw_value,w
  2145  0F01  00F5               	movwf	___fldiv@b
  2146  0F02  120A  118A  2388  120A  158A  	fcall	___fldiv
  2147  0F07  0874               	movf	?___fldiv+3,w
  2148  0F08  1283               	bcf	3,5	;RP0=0, select bank0
  2149  0F09  1303               	bcf	3,6	;RP1=0, select bank0
  2150  0F0A  00B2               	movwf	?_MPU6050_GetGyroY+3
  2151  0F0B  0873               	movf	?___fldiv+2,w
  2152  0F0C  00B1               	movwf	?_MPU6050_GetGyroY+2
  2153  0F0D  0872               	movf	?___fldiv+1,w
  2154  0F0E  00B0               	movwf	?_MPU6050_GetGyroY+1
  2155  0F0F  0871               	movf	?___fldiv,w
  2156  0F10  00AF               	movwf	?_MPU6050_GetGyroY
  2157  0F11                     l131:
  2158  0F11  0008               	return
  2159  0F12                     __end_of_MPU6050_GetGyroY:
  2160                           
  2161                           	psect	text7
  2162  0F75                     __ptext7:	
  2163 ;; *************** function _MPU6050_Get16BitRegister *****************
  2164 ;; Defined at:
  2165 ;;		line 134 in file "./MPU6050.h"
  2166 ;; Parameters:    Size  Location     Type
  2167 ;;  reg             1    wreg     unsigned char 
  2168 ;; Auto vars:     Size  Location     Type
  2169 ;;  reg             1   14[BANK0 ] unsigned char 
  2170 ;; Return value:  Size  Location     Type
  2171 ;;                  4    6[BANK0 ] unsigned char 
  2172 ;; Registers used:
  2173 ;;		wreg, fsr0l, fsr0h, status,2, status,0, btemp+1, pclath, cstack
  2174 ;; Tracked objects:
  2175 ;;		On entry : 0/0
  2176 ;;		On exit  : 0/0
  2177 ;;		Unchanged: 0/0
  2178 ;; Data sizes:     COMMON   BANK0   BANK1   BANK3   BANK2
  2179 ;;      Params:         0       4       0       0       0
  2180 ;;      Locals:         0       1       0       0       0
  2181 ;;      Temps:          0       4       0       0       0
  2182 ;;      Totals:         0       9       0       0       0
  2183 ;;Total ram usage:        9 bytes
  2184 ;; Hardware stack levels used: 1
  2185 ;; Hardware stack levels required when called: 4
  2186 ;; This function calls:
  2187 ;;		_MPU6050_ReadRegister
  2188 ;;		___xxtofl
  2189 ;; This function is called by:
  2190 ;;		_MPU6050_GetGyroY
  2191 ;;		_MPU6050_GetGyroZ
  2192 ;;		_MPU6050_GetTemp
  2193 ;; This function uses a non-reentrant model
  2194 ;;
  2195                           
  2196                           
  2197                           ;psect for function _MPU6050_Get16BitRegister
  2198  0F75                     _MPU6050_Get16BitRegister:
  2199                           
  2200                           ;incstack = 0
  2201                           ; Regs used in _MPU6050_Get16BitRegister: [wreg-fsr0h+status,2+status,0+btemp+1+pclath+c
      +                          stack]
  2202                           ;MPU6050_Get16BitRegister@reg stored from wreg
  2203  0F75  1283               	bcf	3,5	;RP0=0, select bank0
  2204  0F76  1303               	bcf	3,6	;RP1=0, select bank0
  2205  0F77  00AE               	movwf	MPU6050_Get16BitRegister@reg
  2206  0F78                     l1522:
  2207                           
  2208                           ;./MPU6050.h: 135:     MPU6050_ReadRegister(reg, 2, buffer, 2);
  2209  0F78  3002               	movlw	2
  2210  0F79  00F8               	movwf	MPU6050_ReadRegister@num_bytes
  2211  0F7A  3000               	movlw	0
  2212  0F7B  00F9               	movwf	MPU6050_ReadRegister@num_bytes+1
  2213  0F7C  306C               	movlw	(low (_buffer| 0))& (0+255)
  2214  0F7D  00AA               	movwf	??_MPU6050_Get16BitRegister
  2215  0F7E  082A               	movf	??_MPU6050_Get16BitRegister,w
  2216  0F7F  00FA               	movwf	MPU6050_ReadRegister@buffer
  2217  0F80  3002               	movlw	2
  2218  0F81  00AB               	movwf	??_MPU6050_Get16BitRegister+1
  2219  0F82  082B               	movf	??_MPU6050_Get16BitRegister+1,w
  2220  0F83  00FB               	movwf	MPU6050_ReadRegister@buffer_length
  2221  0F84  082E               	movf	MPU6050_Get16BitRegister@reg,w
  2222  0F85  120A  118A  2221  120A  158A  	fcall	_MPU6050_ReadRegister
  2223  0F8A                     l1524:
  2224                           
  2225                           ;./MPU6050.h: 136:     return buffer[0] << 8 | buffer[1];
  2226  0F8A  1283               	bcf	3,5	;RP0=0, select bank0
  2227  0F8B  1303               	bcf	3,6	;RP1=0, select bank0
  2228  0F8C  086D               	movf	_buffer+1,w
  2229  0F8D  00AA               	movwf	??_MPU6050_Get16BitRegister
  2230  0F8E  01AB               	clrf	??_MPU6050_Get16BitRegister+1
  2231  0F8F  086C               	movf	_buffer,w
  2232  0F90  00AC               	movwf	??_MPU6050_Get16BitRegister+2
  2233  0F91  01AD               	clrf	??_MPU6050_Get16BitRegister+3
  2234  0F92  082C               	movf	??_MPU6050_Get16BitRegister+2,w
  2235  0F93  00AD               	movwf	??_MPU6050_Get16BitRegister+3
  2236  0F94  01AC               	clrf	??_MPU6050_Get16BitRegister+2
  2237  0F95  082A               	movf	??_MPU6050_Get16BitRegister,w
  2238  0F96  042C               	iorwf	??_MPU6050_Get16BitRegister+2,w
  2239  0F97  00F1               	movwf	___xxtofl@val
  2240  0F98  082B               	movf	??_MPU6050_Get16BitRegister+1,w
  2241  0F99  042D               	iorwf	??_MPU6050_Get16BitRegister+3,w
  2242  0F9A  00F2               	movwf	___xxtofl@val+1
  2243  0F9B  01F3               	clrf	___xxtofl@val+2
  2244  0F9C  1BF2               	btfsc	___xxtofl@val+1,7
  2245  0F9D  03F3               	decf	___xxtofl@val+2,f
  2246  0F9E  0873               	movf	___xxtofl@val+2,w
  2247  0F9F  00F4               	movwf	___xxtofl@val+3
  2248  0FA0  3001               	movlw	1
  2249  0FA1  120A  118A  22CC  120A  158A  	fcall	___xxtofl
  2250  0FA6  0874               	movf	?___xxtofl+3,w
  2251  0FA7  1283               	bcf	3,5	;RP0=0, select bank0
  2252  0FA8  1303               	bcf	3,6	;RP1=0, select bank0
  2253  0FA9  00A9               	movwf	?_MPU6050_Get16BitRegister+3
  2254  0FAA  0873               	movf	?___xxtofl+2,w
  2255  0FAB  00A8               	movwf	?_MPU6050_Get16BitRegister+2
  2256  0FAC  0872               	movf	?___xxtofl+1,w
  2257  0FAD  00A7               	movwf	?_MPU6050_Get16BitRegister+1
  2258  0FAE  0871               	movf	?___xxtofl,w
  2259  0FAF  00A6               	movwf	?_MPU6050_Get16BitRegister
  2260  0FB0                     l140:
  2261  0FB0  0008               	return
  2262  0FB1                     __end_of_MPU6050_Get16BitRegister:
  2263                           
  2264                           	psect	text8
  2265  0141                     __ptext8:	
  2266 ;; *************** function _MPU6050_GetGyroX *****************
  2267 ;; Defined at:
  2268 ;;		line 112 in file "./MPU6050.h"
  2269 ;; Parameters:    Size  Location     Type
  2270 ;;		None
  2271 ;; Auto vars:     Size  Location     Type
  2272 ;;  raw_value       4   21[BANK0 ] unsigned char 
  2273 ;; Return value:  Size  Location     Type
  2274 ;;                  4   13[BANK0 ] unsigned char 
  2275 ;; Registers used:
  2276 ;;		wreg, fsr0l, fsr0h, status,2, status,0, btemp+1, pclath, cstack
  2277 ;; Tracked objects:
  2278 ;;		On entry : 0/0
  2279 ;;		On exit  : 0/0
  2280 ;;		Unchanged: 0/0
  2281 ;; Data sizes:     COMMON   BANK0   BANK1   BANK3   BANK2
  2282 ;;      Params:         0       4       0       0       0
  2283 ;;      Locals:         0       4       0       0       0
  2284 ;;      Temps:          0       4       0       0       0
  2285 ;;      Totals:         0      12       0       0       0
  2286 ;;Total ram usage:       12 bytes
  2287 ;; Hardware stack levels used: 1
  2288 ;; Hardware stack levels required when called: 4
  2289 ;; This function calls:
  2290 ;;		_MPU6050_ReadRegister
  2291 ;;		___fldiv
  2292 ;;		___xxtofl
  2293 ;; This function is called by:
  2294 ;;		_main
  2295 ;; This function uses a non-reentrant model
  2296 ;;
  2297                           
  2298                           
  2299                           ;psect for function _MPU6050_GetGyroX
  2300  0141                     _MPU6050_GetGyroX:
  2301  0141                     l1910:	
  2302                           ;incstack = 0
  2303                           ; Regs used in _MPU6050_GetGyroX: [wreg-fsr0h+status,2+status,0+btemp+1+pclath+cstack]
  2304                           
  2305                           
  2306                           ;./MPU6050.h: 113:     MPU6050_ReadRegister(0x43, 2, buffer, 2);
  2307  0141  3002               	movlw	2
  2308  0142  00F8               	movwf	MPU6050_ReadRegister@num_bytes
  2309  0143  3000               	movlw	0
  2310  0144  00F9               	movwf	MPU6050_ReadRegister@num_bytes+1
  2311  0145  306C               	movlw	(low (_buffer| 0))& (0+255)
  2312  0146  1283               	bcf	3,5	;RP0=0, select bank0
  2313  0147  1303               	bcf	3,6	;RP1=0, select bank0
  2314  0148  00B1               	movwf	??_MPU6050_GetGyroX
  2315  0149  0831               	movf	??_MPU6050_GetGyroX,w
  2316  014A  00FA               	movwf	MPU6050_ReadRegister@buffer
  2317  014B  3002               	movlw	2
  2318  014C  00B2               	movwf	??_MPU6050_GetGyroX+1
  2319  014D  0832               	movf	??_MPU6050_GetGyroX+1,w
  2320  014E  00FB               	movwf	MPU6050_ReadRegister@buffer_length
  2321  014F  3043               	movlw	67
  2322  0150  120A  118A  2221  120A  118A  	fcall	_MPU6050_ReadRegister
  2323  0155                     l1912:
  2324                           
  2325                           ;./MPU6050.h: 114:     double raw_value = buffer[0] << 8 | buffer[1];
  2326  0155  1283               	bcf	3,5	;RP0=0, select bank0
  2327  0156  1303               	bcf	3,6	;RP1=0, select bank0
  2328  0157  086D               	movf	_buffer+1,w
  2329  0158  00B1               	movwf	??_MPU6050_GetGyroX
  2330  0159  01B2               	clrf	??_MPU6050_GetGyroX+1
  2331  015A  086C               	movf	_buffer,w
  2332  015B  00B3               	movwf	??_MPU6050_GetGyroX+2
  2333  015C  01B4               	clrf	??_MPU6050_GetGyroX+3
  2334  015D  0833               	movf	??_MPU6050_GetGyroX+2,w
  2335  015E  00B4               	movwf	??_MPU6050_GetGyroX+3
  2336  015F  01B3               	clrf	??_MPU6050_GetGyroX+2
  2337  0160  0831               	movf	??_MPU6050_GetGyroX,w
  2338  0161  0433               	iorwf	??_MPU6050_GetGyroX+2,w
  2339  0162  00F1               	movwf	___xxtofl@val
  2340  0163  0832               	movf	??_MPU6050_GetGyroX+1,w
  2341  0164  0434               	iorwf	??_MPU6050_GetGyroX+3,w
  2342  0165  00F2               	movwf	___xxtofl@val+1
  2343  0166  01F3               	clrf	___xxtofl@val+2
  2344  0167  1BF2               	btfsc	___xxtofl@val+1,7
  2345  0168  03F3               	decf	___xxtofl@val+2,f
  2346  0169  0873               	movf	___xxtofl@val+2,w
  2347  016A  00F4               	movwf	___xxtofl@val+3
  2348  016B  3001               	movlw	1
  2349  016C  120A  118A  22CC  120A  118A  	fcall	___xxtofl
  2350  0171  0874               	movf	?___xxtofl+3,w
  2351  0172  1283               	bcf	3,5	;RP0=0, select bank0
  2352  0173  1303               	bcf	3,6	;RP1=0, select bank0
  2353  0174  00B8               	movwf	MPU6050_GetGyroX@raw_value+3
  2354  0175  0873               	movf	?___xxtofl+2,w
  2355  0176  00B7               	movwf	MPU6050_GetGyroX@raw_value+2
  2356  0177  0872               	movf	?___xxtofl+1,w
  2357  0178  00B6               	movwf	MPU6050_GetGyroX@raw_value+1
  2358  0179  0871               	movf	?___xxtofl,w
  2359  017A  00B5               	movwf	MPU6050_GetGyroX@raw_value
  2360  017B                     l1914:
  2361                           
  2362                           ;./MPU6050.h: 115:     return raw_value / 131.0;
  2363  017B  3043               	movlw	67
  2364  017C  00F4               	movwf	___fldiv@a+3
  2365  017D  3003               	movlw	3
  2366  017E  00F3               	movwf	___fldiv@a+2
  2367  017F  3000               	movlw	0
  2368  0180  00F2               	movwf	___fldiv@a+1
  2369  0181  3000               	movlw	0
  2370  0182  00F1               	movwf	___fldiv@a
  2371  0183  0838               	movf	MPU6050_GetGyroX@raw_value+3,w
  2372  0184  00F8               	movwf	___fldiv@b+3
  2373  0185  0837               	movf	MPU6050_GetGyroX@raw_value+2,w
  2374  0186  00F7               	movwf	___fldiv@b+2
  2375  0187  0836               	movf	MPU6050_GetGyroX@raw_value+1,w
  2376  0188  00F6               	movwf	___fldiv@b+1
  2377  0189  0835               	movf	MPU6050_GetGyroX@raw_value,w
  2378  018A  00F5               	movwf	___fldiv@b
  2379  018B  120A  118A  2388  120A  118A  	fcall	___fldiv
  2380  0190  0874               	movf	?___fldiv+3,w
  2381  0191  1283               	bcf	3,5	;RP0=0, select bank0
  2382  0192  1303               	bcf	3,6	;RP1=0, select bank0
  2383  0193  00B0               	movwf	?_MPU6050_GetGyroX+3
  2384  0194  0873               	movf	?___fldiv+2,w
  2385  0195  00AF               	movwf	?_MPU6050_GetGyroX+2
  2386  0196  0872               	movf	?___fldiv+1,w
  2387  0197  00AE               	movwf	?_MPU6050_GetGyroX+1
  2388  0198  0871               	movf	?___fldiv,w
  2389  0199  00AD               	movwf	?_MPU6050_GetGyroX
  2390  019A                     l128:
  2391  019A  0008               	return
  2392  019B                     __end_of_MPU6050_GetGyroX:
  2393                           
  2394                           	psect	text9
  2395  00E7                     __ptext9:	
  2396 ;; *************** function _MPU6050_GetAccelZ *****************
  2397 ;; Defined at:
  2398 ;;		line 106 in file "./MPU6050.h"
  2399 ;; Parameters:    Size  Location     Type
  2400 ;;		None
  2401 ;; Auto vars:     Size  Location     Type
  2402 ;;  raw_value       4   21[BANK0 ] unsigned char 
  2403 ;; Return value:  Size  Location     Type
  2404 ;;                  4   13[BANK0 ] unsigned char 
  2405 ;; Registers used:
  2406 ;;		wreg, fsr0l, fsr0h, status,2, status,0, btemp+1, pclath, cstack
  2407 ;; Tracked objects:
  2408 ;;		On entry : 0/0
  2409 ;;		On exit  : 0/0
  2410 ;;		Unchanged: 0/0
  2411 ;; Data sizes:     COMMON   BANK0   BANK1   BANK3   BANK2
  2412 ;;      Params:         0       4       0       0       0
  2413 ;;      Locals:         0       4       0       0       0
  2414 ;;      Temps:          0       4       0       0       0
  2415 ;;      Totals:         0      12       0       0       0
  2416 ;;Total ram usage:       12 bytes
  2417 ;; Hardware stack levels used: 1
  2418 ;; Hardware stack levels required when called: 4
  2419 ;; This function calls:
  2420 ;;		_MPU6050_ReadRegister
  2421 ;;		___fldiv
  2422 ;;		___xxtofl
  2423 ;; This function is called by:
  2424 ;;		_main
  2425 ;; This function uses a non-reentrant model
  2426 ;;
  2427                           
  2428                           
  2429                           ;psect for function _MPU6050_GetAccelZ
  2430  00E7                     _MPU6050_GetAccelZ:
  2431  00E7                     l1902:	
  2432                           ;incstack = 0
  2433                           ; Regs used in _MPU6050_GetAccelZ: [wreg-fsr0h+status,2+status,0+btemp+1+pclath+cstack]
  2434                           
  2435                           
  2436                           ;./MPU6050.h: 107:     MPU6050_ReadRegister(0x3F, 2, buffer, 2);
  2437  00E7  3002               	movlw	2
  2438  00E8  00F8               	movwf	MPU6050_ReadRegister@num_bytes
  2439  00E9  3000               	movlw	0
  2440  00EA  00F9               	movwf	MPU6050_ReadRegister@num_bytes+1
  2441  00EB  306C               	movlw	(low (_buffer| 0))& (0+255)
  2442  00EC  1283               	bcf	3,5	;RP0=0, select bank0
  2443  00ED  1303               	bcf	3,6	;RP1=0, select bank0
  2444  00EE  00B1               	movwf	??_MPU6050_GetAccelZ
  2445  00EF  0831               	movf	??_MPU6050_GetAccelZ,w
  2446  00F0  00FA               	movwf	MPU6050_ReadRegister@buffer
  2447  00F1  3002               	movlw	2
  2448  00F2  00B2               	movwf	??_MPU6050_GetAccelZ+1
  2449  00F3  0832               	movf	??_MPU6050_GetAccelZ+1,w
  2450  00F4  00FB               	movwf	MPU6050_ReadRegister@buffer_length
  2451  00F5  303F               	movlw	63
  2452  00F6  120A  118A  2221  120A  118A  	fcall	_MPU6050_ReadRegister
  2453  00FB                     l1904:
  2454                           
  2455                           ;./MPU6050.h: 108:     double raw_value = buffer[0] << 8 | buffer[1];
  2456  00FB  1283               	bcf	3,5	;RP0=0, select bank0
  2457  00FC  1303               	bcf	3,6	;RP1=0, select bank0
  2458  00FD  086D               	movf	_buffer+1,w
  2459  00FE  00B1               	movwf	??_MPU6050_GetAccelZ
  2460  00FF  01B2               	clrf	??_MPU6050_GetAccelZ+1
  2461  0100  086C               	movf	_buffer,w
  2462  0101  00B3               	movwf	??_MPU6050_GetAccelZ+2
  2463  0102  01B4               	clrf	??_MPU6050_GetAccelZ+3
  2464  0103  0833               	movf	??_MPU6050_GetAccelZ+2,w
  2465  0104  00B4               	movwf	??_MPU6050_GetAccelZ+3
  2466  0105  01B3               	clrf	??_MPU6050_GetAccelZ+2
  2467  0106  0831               	movf	??_MPU6050_GetAccelZ,w
  2468  0107  0433               	iorwf	??_MPU6050_GetAccelZ+2,w
  2469  0108  00F1               	movwf	___xxtofl@val
  2470  0109  0832               	movf	??_MPU6050_GetAccelZ+1,w
  2471  010A  0434               	iorwf	??_MPU6050_GetAccelZ+3,w
  2472  010B  00F2               	movwf	___xxtofl@val+1
  2473  010C  01F3               	clrf	___xxtofl@val+2
  2474  010D  1BF2               	btfsc	___xxtofl@val+1,7
  2475  010E  03F3               	decf	___xxtofl@val+2,f
  2476  010F  0873               	movf	___xxtofl@val+2,w
  2477  0110  00F4               	movwf	___xxtofl@val+3
  2478  0111  3001               	movlw	1
  2479  0112  120A  118A  22CC  120A  118A  	fcall	___xxtofl
  2480  0117  0874               	movf	?___xxtofl+3,w
  2481  0118  1283               	bcf	3,5	;RP0=0, select bank0
  2482  0119  1303               	bcf	3,6	;RP1=0, select bank0
  2483  011A  00B8               	movwf	MPU6050_GetAccelZ@raw_value+3
  2484  011B  0873               	movf	?___xxtofl+2,w
  2485  011C  00B7               	movwf	MPU6050_GetAccelZ@raw_value+2
  2486  011D  0872               	movf	?___xxtofl+1,w
  2487  011E  00B6               	movwf	MPU6050_GetAccelZ@raw_value+1
  2488  011F  0871               	movf	?___xxtofl,w
  2489  0120  00B5               	movwf	MPU6050_GetAccelZ@raw_value
  2490  0121                     l1906:
  2491                           
  2492                           ;./MPU6050.h: 109:     return raw_value / 16384.0;
  2493  0121  3046               	movlw	70
  2494  0122  00F4               	movwf	___fldiv@a+3
  2495  0123  3080               	movlw	128
  2496  0124  00F3               	movwf	___fldiv@a+2
  2497  0125  3000               	movlw	0
  2498  0126  00F2               	movwf	___fldiv@a+1
  2499  0127  3000               	movlw	0
  2500  0128  00F1               	movwf	___fldiv@a
  2501  0129  0838               	movf	MPU6050_GetAccelZ@raw_value+3,w
  2502  012A  00F8               	movwf	___fldiv@b+3
  2503  012B  0837               	movf	MPU6050_GetAccelZ@raw_value+2,w
  2504  012C  00F7               	movwf	___fldiv@b+2
  2505  012D  0836               	movf	MPU6050_GetAccelZ@raw_value+1,w
  2506  012E  00F6               	movwf	___fldiv@b+1
  2507  012F  0835               	movf	MPU6050_GetAccelZ@raw_value,w
  2508  0130  00F5               	movwf	___fldiv@b
  2509  0131  120A  118A  2388  120A  118A  	fcall	___fldiv
  2510  0136  0874               	movf	?___fldiv+3,w
  2511  0137  1283               	bcf	3,5	;RP0=0, select bank0
  2512  0138  1303               	bcf	3,6	;RP1=0, select bank0
  2513  0139  00B0               	movwf	?_MPU6050_GetAccelZ+3
  2514  013A  0873               	movf	?___fldiv+2,w
  2515  013B  00AF               	movwf	?_MPU6050_GetAccelZ+2
  2516  013C  0872               	movf	?___fldiv+1,w
  2517  013D  00AE               	movwf	?_MPU6050_GetAccelZ+1
  2518  013E  0871               	movf	?___fldiv,w
  2519  013F  00AD               	movwf	?_MPU6050_GetAccelZ
  2520  0140                     l125:
  2521  0140  0008               	return
  2522  0141                     __end_of_MPU6050_GetAccelZ:
  2523                           
  2524                           	psect	text10
  2525  008D                     __ptext10:	
  2526 ;; *************** function _MPU6050_GetAccelY *****************
  2527 ;; Defined at:
  2528 ;;		line 100 in file "./MPU6050.h"
  2529 ;; Parameters:    Size  Location     Type
  2530 ;;		None
  2531 ;; Auto vars:     Size  Location     Type
  2532 ;;  raw_value       4   21[BANK0 ] unsigned char 
  2533 ;; Return value:  Size  Location     Type
  2534 ;;                  4   13[BANK0 ] unsigned char 
  2535 ;; Registers used:
  2536 ;;		wreg, fsr0l, fsr0h, status,2, status,0, btemp+1, pclath, cstack
  2537 ;; Tracked objects:
  2538 ;;		On entry : 0/0
  2539 ;;		On exit  : 0/0
  2540 ;;		Unchanged: 0/0
  2541 ;; Data sizes:     COMMON   BANK0   BANK1   BANK3   BANK2
  2542 ;;      Params:         0       4       0       0       0
  2543 ;;      Locals:         0       4       0       0       0
  2544 ;;      Temps:          0       4       0       0       0
  2545 ;;      Totals:         0      12       0       0       0
  2546 ;;Total ram usage:       12 bytes
  2547 ;; Hardware stack levels used: 1
  2548 ;; Hardware stack levels required when called: 4
  2549 ;; This function calls:
  2550 ;;		_MPU6050_ReadRegister
  2551 ;;		___fldiv
  2552 ;;		___xxtofl
  2553 ;; This function is called by:
  2554 ;;		_main
  2555 ;; This function uses a non-reentrant model
  2556 ;;
  2557                           
  2558                           
  2559                           ;psect for function _MPU6050_GetAccelY
  2560  008D                     _MPU6050_GetAccelY:
  2561  008D                     l1894:	
  2562                           ;incstack = 0
  2563                           ; Regs used in _MPU6050_GetAccelY: [wreg-fsr0h+status,2+status,0+btemp+1+pclath+cstack]
  2564                           
  2565                           
  2566                           ;./MPU6050.h: 101:     MPU6050_ReadRegister(0x3D, 2, buffer, 2);
  2567  008D  3002               	movlw	2
  2568  008E  00F8               	movwf	MPU6050_ReadRegister@num_bytes
  2569  008F  3000               	movlw	0
  2570  0090  00F9               	movwf	MPU6050_ReadRegister@num_bytes+1
  2571  0091  306C               	movlw	(low (_buffer| 0))& (0+255)
  2572  0092  1283               	bcf	3,5	;RP0=0, select bank0
  2573  0093  1303               	bcf	3,6	;RP1=0, select bank0
  2574  0094  00B1               	movwf	??_MPU6050_GetAccelY
  2575  0095  0831               	movf	??_MPU6050_GetAccelY,w
  2576  0096  00FA               	movwf	MPU6050_ReadRegister@buffer
  2577  0097  3002               	movlw	2
  2578  0098  00B2               	movwf	??_MPU6050_GetAccelY+1
  2579  0099  0832               	movf	??_MPU6050_GetAccelY+1,w
  2580  009A  00FB               	movwf	MPU6050_ReadRegister@buffer_length
  2581  009B  303D               	movlw	61
  2582  009C  120A  118A  2221  120A  118A  	fcall	_MPU6050_ReadRegister
  2583  00A1                     l1896:
  2584                           
  2585                           ;./MPU6050.h: 102:     double raw_value = buffer[0] << 8 | buffer[1];
  2586  00A1  1283               	bcf	3,5	;RP0=0, select bank0
  2587  00A2  1303               	bcf	3,6	;RP1=0, select bank0
  2588  00A3  086D               	movf	_buffer+1,w
  2589  00A4  00B1               	movwf	??_MPU6050_GetAccelY
  2590  00A5  01B2               	clrf	??_MPU6050_GetAccelY+1
  2591  00A6  086C               	movf	_buffer,w
  2592  00A7  00B3               	movwf	??_MPU6050_GetAccelY+2
  2593  00A8  01B4               	clrf	??_MPU6050_GetAccelY+3
  2594  00A9  0833               	movf	??_MPU6050_GetAccelY+2,w
  2595  00AA  00B4               	movwf	??_MPU6050_GetAccelY+3
  2596  00AB  01B3               	clrf	??_MPU6050_GetAccelY+2
  2597  00AC  0831               	movf	??_MPU6050_GetAccelY,w
  2598  00AD  0433               	iorwf	??_MPU6050_GetAccelY+2,w
  2599  00AE  00F1               	movwf	___xxtofl@val
  2600  00AF  0832               	movf	??_MPU6050_GetAccelY+1,w
  2601  00B0  0434               	iorwf	??_MPU6050_GetAccelY+3,w
  2602  00B1  00F2               	movwf	___xxtofl@val+1
  2603  00B2  01F3               	clrf	___xxtofl@val+2
  2604  00B3  1BF2               	btfsc	___xxtofl@val+1,7
  2605  00B4  03F3               	decf	___xxtofl@val+2,f
  2606  00B5  0873               	movf	___xxtofl@val+2,w
  2607  00B6  00F4               	movwf	___xxtofl@val+3
  2608  00B7  3001               	movlw	1
  2609  00B8  120A  118A  22CC  120A  118A  	fcall	___xxtofl
  2610  00BD  0874               	movf	?___xxtofl+3,w
  2611  00BE  1283               	bcf	3,5	;RP0=0, select bank0
  2612  00BF  1303               	bcf	3,6	;RP1=0, select bank0
  2613  00C0  00B8               	movwf	MPU6050_GetAccelY@raw_value+3
  2614  00C1  0873               	movf	?___xxtofl+2,w
  2615  00C2  00B7               	movwf	MPU6050_GetAccelY@raw_value+2
  2616  00C3  0872               	movf	?___xxtofl+1,w
  2617  00C4  00B6               	movwf	MPU6050_GetAccelY@raw_value+1
  2618  00C5  0871               	movf	?___xxtofl,w
  2619  00C6  00B5               	movwf	MPU6050_GetAccelY@raw_value
  2620  00C7                     l1898:
  2621                           
  2622                           ;./MPU6050.h: 103:     return raw_value / 16384.0;
  2623  00C7  3046               	movlw	70
  2624  00C8  00F4               	movwf	___fldiv@a+3
  2625  00C9  3080               	movlw	128
  2626  00CA  00F3               	movwf	___fldiv@a+2
  2627  00CB  3000               	movlw	0
  2628  00CC  00F2               	movwf	___fldiv@a+1
  2629  00CD  3000               	movlw	0
  2630  00CE  00F1               	movwf	___fldiv@a
  2631  00CF  0838               	movf	MPU6050_GetAccelY@raw_value+3,w
  2632  00D0  00F8               	movwf	___fldiv@b+3
  2633  00D1  0837               	movf	MPU6050_GetAccelY@raw_value+2,w
  2634  00D2  00F7               	movwf	___fldiv@b+2
  2635  00D3  0836               	movf	MPU6050_GetAccelY@raw_value+1,w
  2636  00D4  00F6               	movwf	___fldiv@b+1
  2637  00D5  0835               	movf	MPU6050_GetAccelY@raw_value,w
  2638  00D6  00F5               	movwf	___fldiv@b
  2639  00D7  120A  118A  2388  120A  118A  	fcall	___fldiv
  2640  00DC  0874               	movf	?___fldiv+3,w
  2641  00DD  1283               	bcf	3,5	;RP0=0, select bank0
  2642  00DE  1303               	bcf	3,6	;RP1=0, select bank0
  2643  00DF  00B0               	movwf	?_MPU6050_GetAccelY+3
  2644  00E0  0873               	movf	?___fldiv+2,w
  2645  00E1  00AF               	movwf	?_MPU6050_GetAccelY+2
  2646  00E2  0872               	movf	?___fldiv+1,w
  2647  00E3  00AE               	movwf	?_MPU6050_GetAccelY+1
  2648  00E4  0871               	movf	?___fldiv,w
  2649  00E5  00AD               	movwf	?_MPU6050_GetAccelY
  2650  00E6                     l122:
  2651  00E6  0008               	return
  2652  00E7                     __end_of_MPU6050_GetAccelY:
  2653                           
  2654                           	psect	text11
  2655  0033                     __ptext11:	
  2656 ;; *************** function _MPU6050_GetAccelX *****************
  2657 ;; Defined at:
  2658 ;;		line 94 in file "./MPU6050.h"
  2659 ;; Parameters:    Size  Location     Type
  2660 ;;		None
  2661 ;; Auto vars:     Size  Location     Type
  2662 ;;  raw_value       4   21[BANK0 ] unsigned char 
  2663 ;; Return value:  Size  Location     Type
  2664 ;;                  4   13[BANK0 ] unsigned char 
  2665 ;; Registers used:
  2666 ;;		wreg, fsr0l, fsr0h, status,2, status,0, btemp+1, pclath, cstack
  2667 ;; Tracked objects:
  2668 ;;		On entry : 0/0
  2669 ;;		On exit  : 0/0
  2670 ;;		Unchanged: 0/0
  2671 ;; Data sizes:     COMMON   BANK0   BANK1   BANK3   BANK2
  2672 ;;      Params:         0       4       0       0       0
  2673 ;;      Locals:         0       4       0       0       0
  2674 ;;      Temps:          0       4       0       0       0
  2675 ;;      Totals:         0      12       0       0       0
  2676 ;;Total ram usage:       12 bytes
  2677 ;; Hardware stack levels used: 1
  2678 ;; Hardware stack levels required when called: 4
  2679 ;; This function calls:
  2680 ;;		_MPU6050_ReadRegister
  2681 ;;		___fldiv
  2682 ;;		___xxtofl
  2683 ;; This function is called by:
  2684 ;;		_main
  2685 ;; This function uses a non-reentrant model
  2686 ;;
  2687                           
  2688                           
  2689                           ;psect for function _MPU6050_GetAccelX
  2690  0033                     _MPU6050_GetAccelX:
  2691  0033                     l1886:	
  2692                           ;incstack = 0
  2693                           ; Regs used in _MPU6050_GetAccelX: [wreg-fsr0h+status,2+status,0+btemp+1+pclath+cstack]
  2694                           
  2695                           
  2696                           ;./MPU6050.h: 95:     MPU6050_ReadRegister(0x3B, 2, buffer, 2);
  2697  0033  3002               	movlw	2
  2698  0034  00F8               	movwf	MPU6050_ReadRegister@num_bytes
  2699  0035  3000               	movlw	0
  2700  0036  00F9               	movwf	MPU6050_ReadRegister@num_bytes+1
  2701  0037  306C               	movlw	(low (_buffer| 0))& (0+255)
  2702  0038  1283               	bcf	3,5	;RP0=0, select bank0
  2703  0039  1303               	bcf	3,6	;RP1=0, select bank0
  2704  003A  00B1               	movwf	??_MPU6050_GetAccelX
  2705  003B  0831               	movf	??_MPU6050_GetAccelX,w
  2706  003C  00FA               	movwf	MPU6050_ReadRegister@buffer
  2707  003D  3002               	movlw	2
  2708  003E  00B2               	movwf	??_MPU6050_GetAccelX+1
  2709  003F  0832               	movf	??_MPU6050_GetAccelX+1,w
  2710  0040  00FB               	movwf	MPU6050_ReadRegister@buffer_length
  2711  0041  303B               	movlw	59
  2712  0042  120A  118A  2221  120A  118A  	fcall	_MPU6050_ReadRegister
  2713  0047                     l1888:
  2714                           
  2715                           ;./MPU6050.h: 96:     double raw_value = buffer[0] << 8 | buffer[1];
  2716  0047  1283               	bcf	3,5	;RP0=0, select bank0
  2717  0048  1303               	bcf	3,6	;RP1=0, select bank0
  2718  0049  086D               	movf	_buffer+1,w
  2719  004A  00B1               	movwf	??_MPU6050_GetAccelX
  2720  004B  01B2               	clrf	??_MPU6050_GetAccelX+1
  2721  004C  086C               	movf	_buffer,w
  2722  004D  00B3               	movwf	??_MPU6050_GetAccelX+2
  2723  004E  01B4               	clrf	??_MPU6050_GetAccelX+3
  2724  004F  0833               	movf	??_MPU6050_GetAccelX+2,w
  2725  0050  00B4               	movwf	??_MPU6050_GetAccelX+3
  2726  0051  01B3               	clrf	??_MPU6050_GetAccelX+2
  2727  0052  0831               	movf	??_MPU6050_GetAccelX,w
  2728  0053  0433               	iorwf	??_MPU6050_GetAccelX+2,w
  2729  0054  00F1               	movwf	___xxtofl@val
  2730  0055  0832               	movf	??_MPU6050_GetAccelX+1,w
  2731  0056  0434               	iorwf	??_MPU6050_GetAccelX+3,w
  2732  0057  00F2               	movwf	___xxtofl@val+1
  2733  0058  01F3               	clrf	___xxtofl@val+2
  2734  0059  1BF2               	btfsc	___xxtofl@val+1,7
  2735  005A  03F3               	decf	___xxtofl@val+2,f
  2736  005B  0873               	movf	___xxtofl@val+2,w
  2737  005C  00F4               	movwf	___xxtofl@val+3
  2738  005D  3001               	movlw	1
  2739  005E  120A  118A  22CC  120A  118A  	fcall	___xxtofl
  2740  0063  0874               	movf	?___xxtofl+3,w
  2741  0064  1283               	bcf	3,5	;RP0=0, select bank0
  2742  0065  1303               	bcf	3,6	;RP1=0, select bank0
  2743  0066  00B8               	movwf	MPU6050_GetAccelX@raw_value+3
  2744  0067  0873               	movf	?___xxtofl+2,w
  2745  0068  00B7               	movwf	MPU6050_GetAccelX@raw_value+2
  2746  0069  0872               	movf	?___xxtofl+1,w
  2747  006A  00B6               	movwf	MPU6050_GetAccelX@raw_value+1
  2748  006B  0871               	movf	?___xxtofl,w
  2749  006C  00B5               	movwf	MPU6050_GetAccelX@raw_value
  2750  006D                     l1890:
  2751                           
  2752                           ;./MPU6050.h: 97:     return raw_value / 16384.0;
  2753  006D  3046               	movlw	70
  2754  006E  00F4               	movwf	___fldiv@a+3
  2755  006F  3080               	movlw	128
  2756  0070  00F3               	movwf	___fldiv@a+2
  2757  0071  3000               	movlw	0
  2758  0072  00F2               	movwf	___fldiv@a+1
  2759  0073  3000               	movlw	0
  2760  0074  00F1               	movwf	___fldiv@a
  2761  0075  0838               	movf	MPU6050_GetAccelX@raw_value+3,w
  2762  0076  00F8               	movwf	___fldiv@b+3
  2763  0077  0837               	movf	MPU6050_GetAccelX@raw_value+2,w
  2764  0078  00F7               	movwf	___fldiv@b+2
  2765  0079  0836               	movf	MPU6050_GetAccelX@raw_value+1,w
  2766  007A  00F6               	movwf	___fldiv@b+1
  2767  007B  0835               	movf	MPU6050_GetAccelX@raw_value,w
  2768  007C  00F5               	movwf	___fldiv@b
  2769  007D  120A  118A  2388  120A  118A  	fcall	___fldiv
  2770  0082  0874               	movf	?___fldiv+3,w
  2771  0083  1283               	bcf	3,5	;RP0=0, select bank0
  2772  0084  1303               	bcf	3,6	;RP1=0, select bank0
  2773  0085  00B0               	movwf	?_MPU6050_GetAccelX+3
  2774  0086  0873               	movf	?___fldiv+2,w
  2775  0087  00AF               	movwf	?_MPU6050_GetAccelX+2
  2776  0088  0872               	movf	?___fldiv+1,w
  2777  0089  00AE               	movwf	?_MPU6050_GetAccelX+1
  2778  008A  0871               	movf	?___fldiv,w
  2779  008B  00AD               	movwf	?_MPU6050_GetAccelX
  2780  008C                     l119:
  2781  008C  0008               	return
  2782  008D                     __end_of_MPU6050_GetAccelX:
  2783                           
  2784                           	psect	text12
  2785  02CC                     __ptext12:	
  2786 ;; *************** function ___xxtofl *****************
  2787 ;; Defined at:
  2788 ;;		line 10 in file "C:\Program Files\Microchip\xc8\v2.32\pic\sources\c90\common\xxtofl.c"
  2789 ;; Parameters:    Size  Location     Type
  2790 ;;  sign            1    wreg     unsigned char 
  2791 ;;  val             4    0[COMMON] long 
  2792 ;; Auto vars:     Size  Location     Type
  2793 ;;  sign            1    0[BANK0 ] unsigned char 
  2794 ;;  arg             4    2[BANK0 ] unsigned long 
  2795 ;;  exp             1    1[BANK0 ] unsigned char 
  2796 ;; Return value:  Size  Location     Type
  2797 ;;                  4    0[COMMON] unsigned char 
  2798 ;; Registers used:
  2799 ;;		wreg, status,2, status,0
  2800 ;; Tracked objects:
  2801 ;;		On entry : 0/0
  2802 ;;		On exit  : 0/0
  2803 ;;		Unchanged: 0/0
  2804 ;; Data sizes:     COMMON   BANK0   BANK1   BANK3   BANK2
  2805 ;;      Params:         4       0       0       0       0
  2806 ;;      Locals:         0       6       0       0       0
  2807 ;;      Temps:          4       0       0       0       0
  2808 ;;      Totals:         8       6       0       0       0
  2809 ;;Total ram usage:       14 bytes
  2810 ;; Hardware stack levels used: 1
  2811 ;; This function calls:
  2812 ;;		Nothing
  2813 ;; This function is called by:
  2814 ;;		_MPU6050_GetAccelX
  2815 ;;		_MPU6050_GetAccelY
  2816 ;;		_MPU6050_GetAccelZ
  2817 ;;		_MPU6050_GetGyroX
  2818 ;;		_MPU6050_Get16BitRegister
  2819 ;; This function uses a non-reentrant model
  2820 ;;
  2821                           
  2822                           
  2823                           ;psect for function ___xxtofl
  2824  02CC                     ___xxtofl:
  2825                           
  2826                           ;incstack = 0
  2827                           ; Regs used in ___xxtofl: [wreg+status,2+status,0]
  2828                           ;___xxtofl@sign stored from wreg
  2829  02CC  1283               	bcf	3,5	;RP0=0, select bank0
  2830  02CD  1303               	bcf	3,6	;RP1=0, select bank0
  2831  02CE  00A0               	movwf	___xxtofl@sign
  2832  02CF                     l1466:
  2833  02CF  0820               	movf	___xxtofl@sign,w
  2834  02D0  1903               	btfsc	3,2
  2835  02D1  2AD3               	goto	u1321
  2836  02D2  2AD4               	goto	u1320
  2837  02D3                     u1321:
  2838  02D3  2AE8               	goto	l1472
  2839  02D4                     u1320:
  2840  02D4                     l1468:
  2841  02D4  1FF4               	btfss	___xxtofl@val+3,7
  2842  02D5  2AD7               	goto	u1331
  2843  02D6  2AD8               	goto	u1330
  2844  02D7                     u1331:
  2845  02D7  2AE8               	goto	l1472
  2846  02D8                     u1330:
  2847  02D8                     l1470:
  2848  02D8  0971               	comf	___xxtofl@val,w
  2849  02D9  00A2               	movwf	___xxtofl@arg
  2850  02DA  0972               	comf	___xxtofl@val+1,w
  2851  02DB  00A3               	movwf	___xxtofl@arg+1
  2852  02DC  0973               	comf	___xxtofl@val+2,w
  2853  02DD  00A4               	movwf	___xxtofl@arg+2
  2854  02DE  0974               	comf	___xxtofl@val+3,w
  2855  02DF  00A5               	movwf	___xxtofl@arg+3
  2856  02E0  0AA2               	incf	___xxtofl@arg,f
  2857  02E1  1903               	skipnz
  2858  02E2  0AA3               	incf	___xxtofl@arg+1,f
  2859  02E3  1903               	skipnz
  2860  02E4  0AA4               	incf	___xxtofl@arg+2,f
  2861  02E5  1903               	skipnz
  2862  02E6  0AA5               	incf	___xxtofl@arg+3,f
  2863  02E7  2AF0               	goto	l681
  2864  02E8                     l1472:
  2865  02E8  0874               	movf	___xxtofl@val+3,w
  2866  02E9  00A5               	movwf	___xxtofl@arg+3
  2867  02EA  0873               	movf	___xxtofl@val+2,w
  2868  02EB  00A4               	movwf	___xxtofl@arg+2
  2869  02EC  0872               	movf	___xxtofl@val+1,w
  2870  02ED  00A3               	movwf	___xxtofl@arg+1
  2871  02EE  0871               	movf	___xxtofl@val,w
  2872  02EF  00A2               	movwf	___xxtofl@arg
  2873  02F0                     l681:
  2874  02F0  0874               	movf	___xxtofl@val+3,w
  2875  02F1  0473               	iorwf	___xxtofl@val+2,w
  2876  02F2  0472               	iorwf	___xxtofl@val+1,w
  2877  02F3  0471               	iorwf	___xxtofl@val,w
  2878  02F4  1D03               	skipz
  2879  02F5  2AF7               	goto	u1341
  2880  02F6  2AF8               	goto	u1340
  2881  02F7                     u1341:
  2882  02F7  2B01               	goto	l1478
  2883  02F8                     u1340:
  2884  02F8                     l1474:
  2885  02F8  3000               	movlw	0
  2886  02F9  00F4               	movwf	?___xxtofl+3
  2887  02FA  3000               	movlw	0
  2888  02FB  00F3               	movwf	?___xxtofl+2
  2889  02FC  3000               	movlw	0
  2890  02FD  00F2               	movwf	?___xxtofl+1
  2891  02FE  3000               	movlw	0
  2892  02FF  00F1               	movwf	?___xxtofl
  2893  0300  2B87               	goto	l683
  2894  0301                     l1478:
  2895  0301  3096               	movlw	150
  2896  0302  00F5               	movwf	??___xxtofl
  2897  0303  0875               	movf	??___xxtofl,w
  2898  0304  00A1               	movwf	___xxtofl@exp
  2899  0305  2B13               	goto	l1482
  2900  0306                     l1480:
  2901  0306  3001               	movlw	1
  2902  0307  00F5               	movwf	??___xxtofl
  2903  0308  0875               	movf	??___xxtofl,w
  2904  0309  07A1               	addwf	___xxtofl@exp,f
  2905  030A  3001               	movlw	1
  2906  030B                     u1355:
  2907  030B  1003               	clrc
  2908  030C  0CA5               	rrf	___xxtofl@arg+3,f
  2909  030D  0CA4               	rrf	___xxtofl@arg+2,f
  2910  030E  0CA3               	rrf	___xxtofl@arg+1,f
  2911  030F  0CA2               	rrf	___xxtofl@arg,f
  2912  0310  3EFF               	addlw	-1
  2913  0311  1D03               	skipz
  2914  0312  2B0B               	goto	u1355
  2915  0313                     l1482:
  2916  0313  30FE               	movlw	254
  2917  0314  0525               	andwf	___xxtofl@arg+3,w
  2918  0315  1D03               	btfss	3,2
  2919  0316  2B18               	goto	u1361
  2920  0317  2B19               	goto	u1360
  2921  0318                     u1361:
  2922  0318  2B06               	goto	l1480
  2923  0319                     u1360:
  2924  0319  2B35               	goto	l687
  2925  031A                     l1484:
  2926  031A  3001               	movlw	1
  2927  031B  00F5               	movwf	??___xxtofl
  2928  031C  0875               	movf	??___xxtofl,w
  2929  031D  07A1               	addwf	___xxtofl@exp,f
  2930  031E                     l1486:
  2931  031E  3001               	movlw	1
  2932  031F  07A2               	addwf	___xxtofl@arg,f
  2933  0320  3000               	movlw	0
  2934  0321  1803               	skipnc
  2935  0322  3001               	movlw	1
  2936  0323  07A3               	addwf	___xxtofl@arg+1,f
  2937  0324  3000               	movlw	0
  2938  0325  1803               	skipnc
  2939  0326  3001               	movlw	1
  2940  0327  07A4               	addwf	___xxtofl@arg+2,f
  2941  0328  3000               	movlw	0
  2942  0329  1803               	skipnc
  2943  032A  3001               	movlw	1
  2944  032B  07A5               	addwf	___xxtofl@arg+3,f
  2945  032C                     l1488:
  2946  032C  3001               	movlw	1
  2947  032D                     u1375:
  2948  032D  1003               	clrc
  2949  032E  0CA5               	rrf	___xxtofl@arg+3,f
  2950  032F  0CA4               	rrf	___xxtofl@arg+2,f
  2951  0330  0CA3               	rrf	___xxtofl@arg+1,f
  2952  0331  0CA2               	rrf	___xxtofl@arg,f
  2953  0332  3EFF               	addlw	-1
  2954  0333  1D03               	skipz
  2955  0334  2B2D               	goto	u1375
  2956  0335                     l687:
  2957  0335  30FF               	movlw	255
  2958  0336  0525               	andwf	___xxtofl@arg+3,w
  2959  0337  1D03               	btfss	3,2
  2960  0338  2B3A               	goto	u1381
  2961  0339  2B3B               	goto	u1380
  2962  033A                     u1381:
  2963  033A  2B1A               	goto	l1484
  2964  033B                     u1380:
  2965  033B  2B47               	goto	l1492
  2966  033C                     l1490:
  2967  033C  3001               	movlw	1
  2968  033D  02A1               	subwf	___xxtofl@exp,f
  2969  033E  3001               	movlw	1
  2970  033F  00F5               	movwf	??___xxtofl
  2971  0340                     u1395:
  2972  0340  1003               	clrc
  2973  0341  0DA2               	rlf	___xxtofl@arg,f
  2974  0342  0DA3               	rlf	___xxtofl@arg+1,f
  2975  0343  0DA4               	rlf	___xxtofl@arg+2,f
  2976  0344  0DA5               	rlf	___xxtofl@arg+3,f
  2977  0345  0BF5               	decfsz	??___xxtofl,f
  2978  0346  2B40               	goto	u1395
  2979  0347                     l1492:
  2980  0347  1BA4               	btfsc	___xxtofl@arg+2,7
  2981  0348  2B4A               	goto	u1401
  2982  0349  2B4B               	goto	u1400
  2983  034A                     u1401:
  2984  034A  2B51               	goto	l694
  2985  034B                     u1400:
  2986  034B                     l1494:
  2987  034B  3002               	movlw	2
  2988  034C  0221               	subwf	___xxtofl@exp,w
  2989  034D  1803               	skipnc
  2990  034E  2B50               	goto	u1411
  2991  034F  2B51               	goto	u1410
  2992  0350                     u1411:
  2993  0350  2B3C               	goto	l1490
  2994  0351                     u1410:
  2995  0351                     l694:
  2996  0351  1821               	btfsc	___xxtofl@exp,0
  2997  0352  2B54               	goto	u1421
  2998  0353  2B55               	goto	u1420
  2999  0354                     u1421:
  3000  0354  2B5D               	goto	l695
  3001  0355                     u1420:
  3002  0355                     l1496:
  3003  0355  30FF               	movlw	255
  3004  0356  05A2               	andwf	___xxtofl@arg,f
  3005  0357  30FF               	movlw	255
  3006  0358  05A3               	andwf	___xxtofl@arg+1,f
  3007  0359  307F               	movlw	127
  3008  035A  05A4               	andwf	___xxtofl@arg+2,f
  3009  035B  30FF               	movlw	255
  3010  035C  05A5               	andwf	___xxtofl@arg+3,f
  3011  035D                     l695:
  3012  035D  1003               	clrc
  3013  035E  0CA1               	rrf	___xxtofl@exp,f
  3014  035F                     l1498:
  3015  035F  0821               	movf	___xxtofl@exp,w
  3016  0360  00F5               	movwf	??___xxtofl
  3017  0361  01F6               	clrf	??___xxtofl+1
  3018  0362  01F7               	clrf	??___xxtofl+2
  3019  0363  01F8               	clrf	??___xxtofl+3
  3020  0364  3018               	movlw	24
  3021  0365                     u1435:
  3022  0365  1003               	clrc
  3023  0366  0DF5               	rlf	??___xxtofl,f
  3024  0367  0DF6               	rlf	??___xxtofl+1,f
  3025  0368  0DF7               	rlf	??___xxtofl+2,f
  3026  0369  0DF8               	rlf	??___xxtofl+3,f
  3027  036A                     u1430:
  3028  036A  3EFF               	addlw	-1
  3029  036B  1D03               	skipz
  3030  036C  2B65               	goto	u1435
  3031  036D  0875               	movf	??___xxtofl,w
  3032  036E  04A2               	iorwf	___xxtofl@arg,f
  3033  036F  0876               	movf	??___xxtofl+1,w
  3034  0370  04A3               	iorwf	___xxtofl@arg+1,f
  3035  0371  0877               	movf	??___xxtofl+2,w
  3036  0372  04A4               	iorwf	___xxtofl@arg+2,f
  3037  0373  0878               	movf	??___xxtofl+3,w
  3038  0374  04A5               	iorwf	___xxtofl@arg+3,f
  3039  0375                     l1500:
  3040  0375  0820               	movf	___xxtofl@sign,w
  3041  0376  1903               	btfsc	3,2
  3042  0377  2B79               	goto	u1441
  3043  0378  2B7A               	goto	u1440
  3044  0379                     u1441:
  3045  0379  2B7F               	goto	l1506
  3046  037A                     u1440:
  3047  037A                     l1502:
  3048  037A  1FF4               	btfss	___xxtofl@val+3,7
  3049  037B  2B7D               	goto	u1451
  3050  037C  2B7E               	goto	u1450
  3051  037D                     u1451:
  3052  037D  2B7F               	goto	l1506
  3053  037E                     u1450:
  3054  037E                     l1504:
  3055  037E  17A5               	bsf	___xxtofl@arg+3,7
  3056  037F                     l1506:
  3057  037F  0825               	movf	___xxtofl@arg+3,w
  3058  0380  00F4               	movwf	?___xxtofl+3
  3059  0381  0824               	movf	___xxtofl@arg+2,w
  3060  0382  00F3               	movwf	?___xxtofl+2
  3061  0383  0823               	movf	___xxtofl@arg+1,w
  3062  0384  00F2               	movwf	?___xxtofl+1
  3063  0385  0822               	movf	___xxtofl@arg,w
  3064  0386  00F1               	movwf	?___xxtofl
  3065  0387                     l683:
  3066  0387  0008               	return
  3067  0388                     __end_of___xxtofl:
  3068                           
  3069                           	psect	text13
  3070  0388                     __ptext13:	
  3071 ;; *************** function ___fldiv *****************
  3072 ;; Defined at:
  3073 ;;		line 8 in file "C:\Program Files\Microchip\xc8\v2.32\pic\sources\c90\common\sprcdiv.c"
  3074 ;; Parameters:    Size  Location     Type
  3075 ;;  a               4    0[COMMON] unsigned char 
  3076 ;;  b               4    4[COMMON] unsigned char 
  3077 ;; Auto vars:     Size  Location     Type
  3078 ;;  grs             4    7[BANK0 ] unsigned long 
  3079 ;;  rem             4    0[BANK0 ] unsigned long 
  3080 ;;  new_exp         2    5[BANK0 ] int 
  3081 ;;  aexp            1   12[BANK0 ] unsigned char 
  3082 ;;  bexp            1   11[BANK0 ] unsigned char 
  3083 ;;  sign            1    4[BANK0 ] unsigned char 
  3084 ;; Return value:  Size  Location     Type
  3085 ;;                  4    0[COMMON] unsigned char 
  3086 ;; Registers used:
  3087 ;;		wreg, status,2, status,0, btemp+1
  3088 ;; Tracked objects:
  3089 ;;		On entry : 0/0
  3090 ;;		On exit  : 0/0
  3091 ;;		Unchanged: 0/0
  3092 ;; Data sizes:     COMMON   BANK0   BANK1   BANK3   BANK2
  3093 ;;      Params:         8       0       0       0       0
  3094 ;;      Locals:         0      13       0       0       0
  3095 ;;      Temps:          5       0       0       0       0
  3096 ;;      Totals:        13      13       0       0       0
  3097 ;;Total ram usage:       26 bytes
  3098 ;; Hardware stack levels used: 1
  3099 ;; This function calls:
  3100 ;;		Nothing
  3101 ;; This function is called by:
  3102 ;;		_MPU6050_GetAccelX
  3103 ;;		_MPU6050_GetAccelY
  3104 ;;		_MPU6050_GetAccelZ
  3105 ;;		_MPU6050_GetGyroX
  3106 ;;		_MPU6050_GetGyroY
  3107 ;;		_MPU6050_GetGyroZ
  3108 ;;		_MPU6050_GetTemp
  3109 ;; This function uses a non-reentrant model
  3110 ;;
  3111                           
  3112                           
  3113                           ;psect for function ___fldiv
  3114  0388                     ___fldiv:
  3115  0388                     l1722:	
  3116                           ;incstack = 0
  3117                           ; Regs used in ___fldiv: [wreg+status,2+status,0+btemp+1]
  3118                           
  3119  0388  0878               	movf	___fldiv@b+3,w
  3120  0389  3980               	andlw	128
  3121  038A  00F9               	movwf	??___fldiv
  3122  038B  0879               	movf	??___fldiv,w
  3123  038C  1283               	bcf	3,5	;RP0=0, select bank0
  3124  038D  1303               	bcf	3,6	;RP1=0, select bank0
  3125  038E  00A4               	movwf	___fldiv@sign
  3126  038F                     l1724:
  3127  038F  0878               	movf	___fldiv@b+3,w
  3128  0390  00F9               	movwf	??___fldiv
  3129  0391  0779               	addwf	??___fldiv,w
  3130  0392  00FA               	movwf	??___fldiv+1
  3131  0393  087A               	movf	??___fldiv+1,w
  3132  0394  00AB               	movwf	___fldiv@bexp
  3133  0395                     l1726:
  3134  0395  1FF7               	btfss	___fldiv@b+2,7
  3135  0396  2B98               	goto	u1941
  3136  0397  2B99               	goto	u1940
  3137  0398                     u1941:
  3138  0398  2B9A               	goto	l1730
  3139  0399                     u1940:
  3140  0399                     l1728:
  3141  0399  142B               	bsf	___fldiv@bexp,0
  3142  039A                     l1730:
  3143  039A  082B               	movf	___fldiv@bexp,w
  3144  039B  1903               	btfsc	3,2
  3145  039C  2B9E               	goto	u1951
  3146  039D  2B9F               	goto	u1950
  3147  039E                     u1951:
  3148  039E  2BAF               	goto	l1740
  3149  039F                     u1950:
  3150  039F                     l1732:
  3151  039F  0A2B               	incf	___fldiv@bexp,w
  3152  03A0  1D03               	btfss	3,2
  3153  03A1  2BA3               	goto	u1961
  3154  03A2  2BA4               	goto	u1960
  3155  03A3                     u1961:
  3156  03A3  2BAC               	goto	l1736
  3157  03A4                     u1960:
  3158  03A4                     l1734:
  3159  03A4  3000               	movlw	0
  3160  03A5  00F8               	movwf	___fldiv@b+3
  3161  03A6  3000               	movlw	0
  3162  03A7  00F7               	movwf	___fldiv@b+2
  3163  03A8  3000               	movlw	0
  3164  03A9  00F6               	movwf	___fldiv@b+1
  3165  03AA  3000               	movlw	0
  3166  03AB  00F5               	movwf	___fldiv@b
  3167  03AC                     l1736:
  3168  03AC  17F7               	bsf	___fldiv@b+2,7
  3169  03AD                     l1738:
  3170  03AD  01F8               	clrf	___fldiv@b+3
  3171  03AE  2BB7               	goto	l1742
  3172  03AF                     l1740:
  3173  03AF  3000               	movlw	0
  3174  03B0  00F8               	movwf	___fldiv@b+3
  3175  03B1  3000               	movlw	0
  3176  03B2  00F7               	movwf	___fldiv@b+2
  3177  03B3  3000               	movlw	0
  3178  03B4  00F6               	movwf	___fldiv@b+1
  3179  03B5  3000               	movlw	0
  3180  03B6  00F5               	movwf	___fldiv@b
  3181  03B7                     l1742:
  3182  03B7  0874               	movf	___fldiv@a+3,w
  3183  03B8  3980               	andlw	128
  3184  03B9  00F9               	movwf	??___fldiv
  3185  03BA  0879               	movf	??___fldiv,w
  3186  03BB  06A4               	xorwf	___fldiv@sign,f
  3187  03BC                     l1744:
  3188  03BC  0874               	movf	___fldiv@a+3,w
  3189  03BD  00F9               	movwf	??___fldiv
  3190  03BE  0779               	addwf	??___fldiv,w
  3191  03BF  00FA               	movwf	??___fldiv+1
  3192  03C0  087A               	movf	??___fldiv+1,w
  3193  03C1  00AC               	movwf	___fldiv@aexp
  3194  03C2                     l1746:
  3195  03C2  1FF3               	btfss	___fldiv@a+2,7
  3196  03C3  2BC5               	goto	u1971
  3197  03C4  2BC6               	goto	u1970
  3198  03C5                     u1971:
  3199  03C5  2BC7               	goto	l1750
  3200  03C6                     u1970:
  3201  03C6                     l1748:
  3202  03C6  142C               	bsf	___fldiv@aexp,0
  3203  03C7                     l1750:
  3204  03C7  082C               	movf	___fldiv@aexp,w
  3205  03C8  1903               	btfsc	3,2
  3206  03C9  2BCB               	goto	u1981
  3207  03CA  2BCC               	goto	u1980
  3208  03CB                     u1981:
  3209  03CB  2BDC               	goto	l1760
  3210  03CC                     u1980:
  3211  03CC                     l1752:
  3212  03CC  0A2C               	incf	___fldiv@aexp,w
  3213  03CD  1D03               	btfss	3,2
  3214  03CE  2BD0               	goto	u1991
  3215  03CF  2BD1               	goto	u1990
  3216  03D0                     u1991:
  3217  03D0  2BD9               	goto	l1756
  3218  03D1                     u1990:
  3219  03D1                     l1754:
  3220  03D1  3000               	movlw	0
  3221  03D2  00F4               	movwf	___fldiv@a+3
  3222  03D3  3000               	movlw	0
  3223  03D4  00F3               	movwf	___fldiv@a+2
  3224  03D5  3000               	movlw	0
  3225  03D6  00F2               	movwf	___fldiv@a+1
  3226  03D7  3000               	movlw	0
  3227  03D8  00F1               	movwf	___fldiv@a
  3228  03D9                     l1756:
  3229  03D9  17F3               	bsf	___fldiv@a+2,7
  3230  03DA                     l1758:
  3231  03DA  01F4               	clrf	___fldiv@a+3
  3232  03DB  2BE4               	goto	l597
  3233  03DC                     l1760:
  3234  03DC  3000               	movlw	0
  3235  03DD  00F4               	movwf	___fldiv@a+3
  3236  03DE  3000               	movlw	0
  3237  03DF  00F3               	movwf	___fldiv@a+2
  3238  03E0  3000               	movlw	0
  3239  03E1  00F2               	movwf	___fldiv@a+1
  3240  03E2  3000               	movlw	0
  3241  03E3  00F1               	movwf	___fldiv@a
  3242  03E4                     l597:
  3243  03E4  0874               	movf	___fldiv@a+3,w
  3244  03E5  0473               	iorwf	___fldiv@a+2,w
  3245  03E6  0472               	iorwf	___fldiv@a+1,w
  3246  03E7  0471               	iorwf	___fldiv@a,w
  3247  03E8  1D03               	skipz
  3248  03E9  2BEB               	goto	u2001
  3249  03EA  2BEC               	goto	u2000
  3250  03EB                     u2001:
  3251  03EB  2C05               	goto	l1770
  3252  03EC                     u2000:
  3253  03EC                     l1762:
  3254  03EC  3000               	movlw	0
  3255  03ED  00F8               	movwf	___fldiv@b+3
  3256  03EE  3000               	movlw	0
  3257  03EF  00F7               	movwf	___fldiv@b+2
  3258  03F0  3000               	movlw	0
  3259  03F1  00F6               	movwf	___fldiv@b+1
  3260  03F2  3000               	movlw	0
  3261  03F3  00F5               	movwf	___fldiv@b
  3262  03F4  3080               	movlw	128
  3263  03F5  04F7               	iorwf	___fldiv@b+2,f
  3264  03F6  307F               	movlw	127
  3265  03F7  04F8               	iorwf	___fldiv@b+3,f
  3266  03F8                     l1764:
  3267  03F8  0824               	movf	___fldiv@sign,w
  3268  03F9  00F9               	movwf	??___fldiv
  3269  03FA  0879               	movf	??___fldiv,w
  3270  03FB  04F8               	iorwf	___fldiv@b+3,f
  3271  03FC                     l1766:
  3272  03FC  0878               	movf	___fldiv@b+3,w
  3273  03FD  00F4               	movwf	?___fldiv+3
  3274  03FE  0877               	movf	___fldiv@b+2,w
  3275  03FF  00F3               	movwf	?___fldiv+2
  3276  0400  0876               	movf	___fldiv@b+1,w
  3277  0401  00F2               	movwf	?___fldiv+1
  3278  0402  0875               	movf	___fldiv@b,w
  3279  0403  00F1               	movwf	?___fldiv
  3280  0404  2D6A               	goto	l599
  3281  0405                     l1770:
  3282  0405  082B               	movf	___fldiv@bexp,w
  3283  0406  1D03               	btfss	3,2
  3284  0407  2C09               	goto	u2011
  3285  0408  2C0A               	goto	u2010
  3286  0409                     u2011:
  3287  0409  2C13               	goto	l1776
  3288  040A                     u2010:
  3289  040A                     l1772:
  3290  040A  3000               	movlw	0
  3291  040B  00F4               	movwf	?___fldiv+3
  3292  040C  3000               	movlw	0
  3293  040D  00F3               	movwf	?___fldiv+2
  3294  040E  3000               	movlw	0
  3295  040F  00F2               	movwf	?___fldiv+1
  3296  0410  3000               	movlw	0
  3297  0411  00F1               	movwf	?___fldiv
  3298  0412  2D6A               	goto	l599
  3299  0413                     l1776:
  3300  0413  082B               	movf	___fldiv@bexp,w
  3301  0414  00F9               	movwf	??___fldiv
  3302  0415  01FA               	clrf	??___fldiv+1
  3303  0416  087A               	movf	??___fldiv+1,w
  3304  0417  00FC               	movwf	??___fldiv+3
  3305  0418  082C               	movf	___fldiv@aexp,w
  3306  0419  0279               	subwf	??___fldiv,w
  3307  041A  00FB               	movwf	??___fldiv+2
  3308  041B  1C03               	skipc
  3309  041C  03FC               	decf	??___fldiv+3,f
  3310  041D  087B               	movf	??___fldiv+2,w
  3311  041E  3E7F               	addlw	127
  3312  041F  00A5               	movwf	___fldiv@new_exp
  3313  0420  087C               	movf	??___fldiv+3,w
  3314  0421  1803               	skipnc
  3315  0422  3E01               	addlw	1
  3316  0423  3E00               	addlw	0
  3317  0424  00A6               	movwf	___fldiv@new_exp+1
  3318  0425                     l1778:
  3319  0425  0878               	movf	___fldiv@b+3,w
  3320  0426  00A3               	movwf	___fldiv@rem+3
  3321  0427  0877               	movf	___fldiv@b+2,w
  3322  0428  00A2               	movwf	___fldiv@rem+2
  3323  0429  0876               	movf	___fldiv@b+1,w
  3324  042A  00A1               	movwf	___fldiv@rem+1
  3325  042B  0875               	movf	___fldiv@b,w
  3326  042C  00A0               	movwf	___fldiv@rem
  3327  042D                     l1780:
  3328  042D  3000               	movlw	0
  3329  042E  00F8               	movwf	___fldiv@b+3
  3330  042F  3000               	movlw	0
  3331  0430  00F7               	movwf	___fldiv@b+2
  3332  0431  3000               	movlw	0
  3333  0432  00F6               	movwf	___fldiv@b+1
  3334  0433  3000               	movlw	0
  3335  0434  00F5               	movwf	___fldiv@b
  3336  0435                     l1782:
  3337  0435  3000               	movlw	0
  3338  0436  00AA               	movwf	___fldiv@grs+3
  3339  0437  3000               	movlw	0
  3340  0438  00A9               	movwf	___fldiv@grs+2
  3341  0439  3000               	movlw	0
  3342  043A  00A8               	movwf	___fldiv@grs+1
  3343  043B  3000               	movlw	0
  3344  043C  00A7               	movwf	___fldiv@grs
  3345  043D                     l1784:
  3346  043D  01AC               	clrf	___fldiv@aexp
  3347  043E  2C8F               	goto	l1804
  3348  043F                     l1786:
  3349  043F  082C               	movf	___fldiv@aexp,w
  3350  0440  1903               	btfsc	3,2
  3351  0441  2C43               	goto	u2021
  3352  0442  2C44               	goto	u2020
  3353  0443                     u2021:
  3354  0443  2C64               	goto	l1796
  3355  0444                     u2020:
  3356  0444                     l1788:
  3357  0444  3001               	movlw	1
  3358  0445  00F9               	movwf	??___fldiv
  3359  0446                     u2035:
  3360  0446  1003               	clrc
  3361  0447  0DA0               	rlf	___fldiv@rem,f
  3362  0448  0DA1               	rlf	___fldiv@rem+1,f
  3363  0449  0DA2               	rlf	___fldiv@rem+2,f
  3364  044A  0DA3               	rlf	___fldiv@rem+3,f
  3365  044B  0BF9               	decfsz	??___fldiv,f
  3366  044C  2C46               	goto	u2035
  3367  044D  3001               	movlw	1
  3368  044E  00F9               	movwf	??___fldiv
  3369  044F                     u2045:
  3370  044F  1003               	clrc
  3371  0450  0DF5               	rlf	___fldiv@b,f
  3372  0451  0DF6               	rlf	___fldiv@b+1,f
  3373  0452  0DF7               	rlf	___fldiv@b+2,f
  3374  0453  0DF8               	rlf	___fldiv@b+3,f
  3375  0454  0BF9               	decfsz	??___fldiv,f
  3376  0455  2C4F               	goto	u2045
  3377  0456                     l1790:
  3378  0456  1FAA               	btfss	___fldiv@grs+3,7
  3379  0457  2C59               	goto	u2051
  3380  0458  2C5A               	goto	u2050
  3381  0459                     u2051:
  3382  0459  2C5B               	goto	l1794
  3383  045A                     u2050:
  3384  045A                     l1792:
  3385  045A  1475               	bsf	___fldiv@b,0
  3386  045B                     l1794:
  3387  045B  3001               	movlw	1
  3388  045C  00F9               	movwf	??___fldiv
  3389  045D                     u2065:
  3390  045D  1003               	clrc
  3391  045E  0DA7               	rlf	___fldiv@grs,f
  3392  045F  0DA8               	rlf	___fldiv@grs+1,f
  3393  0460  0DA9               	rlf	___fldiv@grs+2,f
  3394  0461  0DAA               	rlf	___fldiv@grs+3,f
  3395  0462  0BF9               	decfsz	??___fldiv,f
  3396  0463  2C5D               	goto	u2065
  3397  0464                     l1796:
  3398  0464  0874               	movf	___fldiv@a+3,w
  3399  0465  0223               	subwf	___fldiv@rem+3,w
  3400  0466  1D03               	skipz
  3401  0467  2C72               	goto	u2075
  3402  0468  0873               	movf	___fldiv@a+2,w
  3403  0469  0222               	subwf	___fldiv@rem+2,w
  3404  046A  1D03               	skipz
  3405  046B  2C72               	goto	u2075
  3406  046C  0872               	movf	___fldiv@a+1,w
  3407  046D  0221               	subwf	___fldiv@rem+1,w
  3408  046E  1D03               	skipz
  3409  046F  2C72               	goto	u2075
  3410  0470  0871               	movf	___fldiv@a,w
  3411  0471  0220               	subwf	___fldiv@rem,w
  3412  0472                     u2075:
  3413  0472  1C03               	skipc
  3414  0473  2C75               	goto	u2071
  3415  0474  2C76               	goto	u2070
  3416  0475                     u2071:
  3417  0475  2C8B               	goto	l1802
  3418  0476                     u2070:
  3419  0476                     l1798:
  3420  0476  172A               	bsf	___fldiv@grs+3,6
  3421  0477                     l1800:
  3422  0477  0871               	movf	___fldiv@a,w
  3423  0478  02A0               	subwf	___fldiv@rem,f
  3424  0479  0872               	movf	___fldiv@a+1,w
  3425  047A  1C03               	skipc
  3426  047B  0F72               	incfsz	___fldiv@a+1,w
  3427  047C  2C7E               	goto	u2085
  3428  047D  2C7F               	goto	u2086
  3429  047E                     u2085:
  3430  047E  02A1               	subwf	___fldiv@rem+1,f
  3431  047F                     u2086:
  3432  047F  0873               	movf	___fldiv@a+2,w
  3433  0480  1C03               	skipc
  3434  0481  0F73               	incfsz	___fldiv@a+2,w
  3435  0482  2C84               	goto	u2087
  3436  0483  2C85               	goto	u2088
  3437  0484                     u2087:
  3438  0484  02A2               	subwf	___fldiv@rem+2,f
  3439  0485                     u2088:
  3440  0485  0874               	movf	___fldiv@a+3,w
  3441  0486  1C03               	skipc
  3442  0487  0F74               	incfsz	___fldiv@a+3,w
  3443  0488  2C8A               	goto	u2089
  3444  0489  2C8B               	goto	u2080
  3445  048A                     u2089:
  3446  048A  02A3               	subwf	___fldiv@rem+3,f
  3447  048B                     u2080:
  3448  048B                     l1802:
  3449  048B  3001               	movlw	1
  3450  048C  00F9               	movwf	??___fldiv
  3451  048D  0879               	movf	??___fldiv,w
  3452  048E  07AC               	addwf	___fldiv@aexp,f
  3453  048F                     l1804:
  3454  048F  301A               	movlw	26
  3455  0490  022C               	subwf	___fldiv@aexp,w
  3456  0491  1C03               	skipc
  3457  0492  2C94               	goto	u2091
  3458  0493  2C95               	goto	u2090
  3459  0494                     u2091:
  3460  0494  2C3F               	goto	l1786
  3461  0495                     u2090:
  3462  0495                     l1806:
  3463  0495  0823               	movf	___fldiv@rem+3,w
  3464  0496  0422               	iorwf	___fldiv@rem+2,w
  3465  0497  0421               	iorwf	___fldiv@rem+1,w
  3466  0498  0420               	iorwf	___fldiv@rem,w
  3467  0499  1903               	skipnz
  3468  049A  2C9C               	goto	u2101
  3469  049B  2C9D               	goto	u2100
  3470  049C                     u2101:
  3471  049C  2CBC               	goto	l1820
  3472  049D                     u2100:
  3473  049D                     l1808:
  3474  049D  1427               	bsf	___fldiv@grs,0
  3475  049E  2CBC               	goto	l1820
  3476  049F                     l1810:
  3477  049F  3001               	movlw	1
  3478  04A0  00F9               	movwf	??___fldiv
  3479  04A1                     u2115:
  3480  04A1  1003               	clrc
  3481  04A2  0DF5               	rlf	___fldiv@b,f
  3482  04A3  0DF6               	rlf	___fldiv@b+1,f
  3483  04A4  0DF7               	rlf	___fldiv@b+2,f
  3484  04A5  0DF8               	rlf	___fldiv@b+3,f
  3485  04A6  0BF9               	decfsz	??___fldiv,f
  3486  04A7  2CA1               	goto	u2115
  3487  04A8                     l1812:
  3488  04A8  1FAA               	btfss	___fldiv@grs+3,7
  3489  04A9  2CAB               	goto	u2121
  3490  04AA  2CAC               	goto	u2120
  3491  04AB                     u2121:
  3492  04AB  2CAD               	goto	l1816
  3493  04AC                     u2120:
  3494  04AC                     l1814:
  3495  04AC  1475               	bsf	___fldiv@b,0
  3496  04AD                     l1816:
  3497  04AD  3001               	movlw	1
  3498  04AE  00F9               	movwf	??___fldiv
  3499  04AF                     u2135:
  3500  04AF  1003               	clrc
  3501  04B0  0DA7               	rlf	___fldiv@grs,f
  3502  04B1  0DA8               	rlf	___fldiv@grs+1,f
  3503  04B2  0DA9               	rlf	___fldiv@grs+2,f
  3504  04B3  0DAA               	rlf	___fldiv@grs+3,f
  3505  04B4  0BF9               	decfsz	??___fldiv,f
  3506  04B5  2CAF               	goto	u2135
  3507  04B6                     l1818:
  3508  04B6  30FF               	movlw	255
  3509  04B7  07A5               	addwf	___fldiv@new_exp,f
  3510  04B8  1803               	skipnc
  3511  04B9  0AA6               	incf	___fldiv@new_exp+1,f
  3512  04BA  30FF               	movlw	255
  3513  04BB  07A6               	addwf	___fldiv@new_exp+1,f
  3514  04BC                     l1820:
  3515  04BC  1FF7               	btfss	___fldiv@b+2,7
  3516  04BD  2CBF               	goto	u2141
  3517  04BE  2CC0               	goto	u2140
  3518  04BF                     u2141:
  3519  04BF  2C9F               	goto	l1810
  3520  04C0                     u2140:
  3521  04C0                     l1822:
  3522  04C0  01AC               	clrf	___fldiv@aexp
  3523  04C1                     l1824:
  3524  04C1  1FAA               	btfss	___fldiv@grs+3,7
  3525  04C2  2CC4               	goto	u2151
  3526  04C3  2CC5               	goto	u2150
  3527  04C4                     u2151:
  3528  04C4  2CE1               	goto	l1832
  3529  04C5                     u2150:
  3530  04C5                     l1826:
  3531  04C5  30FF               	movlw	255
  3532  04C6  0527               	andwf	___fldiv@grs,w
  3533  04C7  00F9               	movwf	??___fldiv
  3534  04C8  30FF               	movlw	255
  3535  04C9  0528               	andwf	___fldiv@grs+1,w
  3536  04CA  00FA               	movwf	??___fldiv+1
  3537  04CB  30FF               	movlw	255
  3538  04CC  0529               	andwf	___fldiv@grs+2,w
  3539  04CD  00FB               	movwf	??___fldiv+2
  3540  04CE  307F               	movlw	127
  3541  04CF  052A               	andwf	___fldiv@grs+3,w
  3542  04D0  00FC               	movwf	??___fldiv+3
  3543  04D1  087C               	movf	??___fldiv+3,w
  3544  04D2  047B               	iorwf	??___fldiv+2,w
  3545  04D3  047A               	iorwf	??___fldiv+1,w
  3546  04D4  0479               	iorwf	??___fldiv,w
  3547  04D5  1903               	skipnz
  3548  04D6  2CD8               	goto	u2161
  3549  04D7  2CD9               	goto	u2160
  3550  04D8                     u2161:
  3551  04D8  2CDC               	goto	l613
  3552  04D9                     u2160:
  3553  04D9                     l1828:
  3554  04D9  01AC               	clrf	___fldiv@aexp
  3555  04DA  0AAC               	incf	___fldiv@aexp,f
  3556  04DB  2CE1               	goto	l1832
  3557  04DC                     l613:
  3558  04DC  1C75               	btfss	___fldiv@b,0
  3559  04DD  2CDF               	goto	u2171
  3560  04DE  2CE0               	goto	u2170
  3561  04DF                     u2171:
  3562  04DF  2CE1               	goto	l1832
  3563  04E0                     u2170:
  3564  04E0  2CD9               	goto	l1828
  3565  04E1                     l1832:
  3566  04E1  082C               	movf	___fldiv@aexp,w
  3567  04E2  1903               	btfsc	3,2
  3568  04E3  2CE5               	goto	u2181
  3569  04E4  2CE6               	goto	u2180
  3570  04E5                     u2181:
  3571  04E5  2D17               	goto	l1842
  3572  04E6                     u2180:
  3573  04E6                     l1834:
  3574  04E6  3001               	movlw	1
  3575  04E7  07F5               	addwf	___fldiv@b,f
  3576  04E8  3000               	movlw	0
  3577  04E9  1803               	skipnc
  3578  04EA  3001               	movlw	1
  3579  04EB  07F6               	addwf	___fldiv@b+1,f
  3580  04EC  3000               	movlw	0
  3581  04ED  1803               	skipnc
  3582  04EE  3001               	movlw	1
  3583  04EF  07F7               	addwf	___fldiv@b+2,f
  3584  04F0  3000               	movlw	0
  3585  04F1  1803               	skipnc
  3586  04F2  3001               	movlw	1
  3587  04F3  07F8               	addwf	___fldiv@b+3,f
  3588  04F4                     l1836:
  3589  04F4  1C78               	btfss	___fldiv@b+3,0
  3590  04F5  2CF7               	goto	u2191
  3591  04F6  2CF8               	goto	u2190
  3592  04F7                     u2191:
  3593  04F7  2D17               	goto	l1842
  3594  04F8                     u2190:
  3595  04F8                     l1838:
  3596  04F8  0875               	movf	___fldiv@b,w
  3597  04F9  00F9               	movwf	??___fldiv
  3598  04FA  0876               	movf	___fldiv@b+1,w
  3599  04FB  00FA               	movwf	??___fldiv+1
  3600  04FC  0877               	movf	___fldiv@b+2,w
  3601  04FD  00FB               	movwf	??___fldiv+2
  3602  04FE  0878               	movf	___fldiv@b+3,w
  3603  04FF  00FC               	movwf	??___fldiv+3
  3604  0500  3001               	movlw	1
  3605  0501  00FD               	movwf	??___fldiv+4
  3606  0502                     u2205:
  3607  0502  0D7C               	rlf	??___fldiv+3,w
  3608  0503  0CFC               	rrf	??___fldiv+3,f
  3609  0504  0CFB               	rrf	??___fldiv+2,f
  3610  0505  0CFA               	rrf	??___fldiv+1,f
  3611  0506  0CF9               	rrf	??___fldiv,f
  3612  0507                     u2200:
  3613  0507  0BFD               	decfsz	??___fldiv+4,f
  3614  0508  2D02               	goto	u2205
  3615  0509  087C               	movf	??___fldiv+3,w
  3616  050A  00F8               	movwf	___fldiv@b+3
  3617  050B  087B               	movf	??___fldiv+2,w
  3618  050C  00F7               	movwf	___fldiv@b+2
  3619  050D  087A               	movf	??___fldiv+1,w
  3620  050E  00F6               	movwf	___fldiv@b+1
  3621  050F  0879               	movf	??___fldiv,w
  3622  0510  00F5               	movwf	___fldiv@b
  3623  0511                     l1840:
  3624  0511  3001               	movlw	1
  3625  0512  07A5               	addwf	___fldiv@new_exp,f
  3626  0513  1803               	skipnc
  3627  0514  0AA6               	incf	___fldiv@new_exp+1,f
  3628  0515  3000               	movlw	0
  3629  0516  07A6               	addwf	___fldiv@new_exp+1,f
  3630  0517                     l1842:
  3631  0517  0826               	movf	___fldiv@new_exp+1,w
  3632  0518  3A80               	xorlw	128
  3633  0519  00FF               	movwf	btemp+1
  3634  051A  3080               	movlw	128
  3635  051B  027F               	subwf	btemp+1,w
  3636  051C  1D03               	skipz
  3637  051D  2D20               	goto	u2215
  3638  051E  30FF               	movlw	255
  3639  051F  0225               	subwf	___fldiv@new_exp,w
  3640  0520                     u2215:
  3641  0520  1C03               	skipc
  3642  0521  2D23               	goto	u2211
  3643  0522  2D24               	goto	u2210
  3644  0523                     u2211:
  3645  0523  2D32               	goto	l1846
  3646  0524                     u2210:
  3647  0524                     l1844:
  3648  0524  30FF               	movlw	255
  3649  0525  1283               	bcf	3,5	;RP0=0, select bank0
  3650  0526  1303               	bcf	3,6	;RP1=0, select bank0
  3651  0527  00A5               	movwf	___fldiv@new_exp
  3652  0528  3000               	movlw	0
  3653  0529  00A6               	movwf	___fldiv@new_exp+1
  3654  052A  3000               	movlw	0
  3655  052B  00F8               	movwf	___fldiv@b+3
  3656  052C  3000               	movlw	0
  3657  052D  00F7               	movwf	___fldiv@b+2
  3658  052E  3000               	movlw	0
  3659  052F  00F6               	movwf	___fldiv@b+1
  3660  0530  3000               	movlw	0
  3661  0531  00F5               	movwf	___fldiv@b
  3662  0532                     l1846:
  3663  0532  1283               	bcf	3,5	;RP0=0, select bank0
  3664  0533  1303               	bcf	3,6	;RP1=0, select bank0
  3665  0534  0826               	movf	___fldiv@new_exp+1,w
  3666  0535  3A80               	xorlw	128
  3667  0536  00FF               	movwf	btemp+1
  3668  0537  3080               	movlw	128
  3669  0538  027F               	subwf	btemp+1,w
  3670  0539  1D03               	skipz
  3671  053A  2D3D               	goto	u2225
  3672  053B  3001               	movlw	1
  3673  053C  0225               	subwf	___fldiv@new_exp,w
  3674  053D                     u2225:
  3675  053D  1803               	skipnc
  3676  053E  2D40               	goto	u2221
  3677  053F  2D41               	goto	u2220
  3678  0540                     u2221:
  3679  0540  2D4E               	goto	l619
  3680  0541                     u2220:
  3681  0541                     l1848:
  3682  0541  1283               	bcf	3,5	;RP0=0, select bank0
  3683  0542  1303               	bcf	3,6	;RP1=0, select bank0
  3684  0543  01A5               	clrf	___fldiv@new_exp
  3685  0544  01A6               	clrf	___fldiv@new_exp+1
  3686  0545                     l1850:
  3687  0545  3000               	movlw	0
  3688  0546  00F8               	movwf	___fldiv@b+3
  3689  0547  3000               	movlw	0
  3690  0548  00F7               	movwf	___fldiv@b+2
  3691  0549  3000               	movlw	0
  3692  054A  00F6               	movwf	___fldiv@b+1
  3693  054B  3000               	movlw	0
  3694  054C  00F5               	movwf	___fldiv@b
  3695  054D                     l1852:
  3696  054D  01A4               	clrf	___fldiv@sign
  3697  054E                     l619:
  3698  054E  1283               	bcf	3,5	;RP0=0, select bank0
  3699  054F  1303               	bcf	3,6	;RP1=0, select bank0
  3700  0550  0825               	movf	___fldiv@new_exp,w
  3701  0551  00F9               	movwf	??___fldiv
  3702  0552  0879               	movf	??___fldiv,w
  3703  0553  00AB               	movwf	___fldiv@bexp
  3704  0554                     l1854:
  3705  0554  1C2B               	btfss	___fldiv@bexp,0
  3706  0555  2D57               	goto	u2231
  3707  0556  2D58               	goto	u2230
  3708  0557                     u2231:
  3709  0557  2D5A               	goto	l1858
  3710  0558                     u2230:
  3711  0558                     l1856:
  3712  0558  17F7               	bsf	___fldiv@b+2,7
  3713  0559  2D5E               	goto	l621
  3714  055A                     l1858:
  3715  055A  307F               	movlw	127
  3716  055B  00F9               	movwf	??___fldiv
  3717  055C  0879               	movf	??___fldiv,w
  3718  055D  05F7               	andwf	___fldiv@b+2,f
  3719  055E                     l621:
  3720  055E  082B               	movf	___fldiv@bexp,w
  3721  055F  00F9               	movwf	??___fldiv
  3722  0560  1003               	clrc
  3723  0561  0C79               	rrf	??___fldiv,w
  3724  0562  00FA               	movwf	??___fldiv+1
  3725  0563  087A               	movf	??___fldiv+1,w
  3726  0564  00F8               	movwf	___fldiv@b+3
  3727  0565  0824               	movf	___fldiv@sign,w
  3728  0566  00F9               	movwf	??___fldiv
  3729  0567  0879               	movf	??___fldiv,w
  3730  0568  04F8               	iorwf	___fldiv@b+3,f
  3731  0569  2BFC               	goto	l1766
  3732  056A                     l599:
  3733  056A  0008               	return
  3734  056B                     __end_of___fldiv:
  3735                           
  3736                           	psect	text14
  3737  0221                     __ptext14:	
  3738 ;; *************** function _MPU6050_ReadRegister *****************
  3739 ;; Defined at:
  3740 ;;		line 63 in file "./MPU6050.h"
  3741 ;; Parameters:    Size  Location     Type
  3742 ;;  reg             1    wreg     unsigned char 
  3743 ;;  num_bytes       2    7[COMMON] short 
  3744 ;;  buffer          1    9[COMMON] PTR unsigned char 
  3745 ;;		 -> buffer(2), 
  3746 ;;  buffer_lengt    1   10[COMMON] unsigned char 
  3747 ;; Auto vars:     Size  Location     Type
  3748 ;;  reg             1    0[BANK0 ] unsigned char 
  3749 ;;  index           1    1[BANK0 ] unsigned char 
  3750 ;;  ackMode         1    2[BANK0 ] enum E1561
  3751 ;; Return value:  Size  Location     Type
  3752 ;;                  1    wreg      void 
  3753 ;; Registers used:
  3754 ;;		wreg, fsr0l, fsr0h, status,2, status,0, btemp+1, pclath, cstack
  3755 ;; Tracked objects:
  3756 ;;		On entry : 0/0
  3757 ;;		On exit  : 0/0
  3758 ;;		Unchanged: 0/0
  3759 ;; Data sizes:     COMMON   BANK0   BANK1   BANK3   BANK2
  3760 ;;      Params:         4       0       0       0       0
  3761 ;;      Locals:         0       3       0       0       0
  3762 ;;      Temps:          2       0       0       0       0
  3763 ;;      Totals:         6       3       0       0       0
  3764 ;;Total ram usage:        9 bytes
  3765 ;; Hardware stack levels used: 1
  3766 ;; Hardware stack levels required when called: 3
  3767 ;; This function calls:
  3768 ;;		_I2C_Read
  3769 ;;		_I2C_RepeatedStart
  3770 ;;		_I2C_Start
  3771 ;;		_I2C_Stop
  3772 ;;		_I2C_Write
  3773 ;;		_memset
  3774 ;; This function is called by:
  3775 ;;		_MPU6050_GetAccelX
  3776 ;;		_MPU6050_GetAccelY
  3777 ;;		_MPU6050_GetAccelZ
  3778 ;;		_MPU6050_GetGyroX
  3779 ;;		_MPU6050_Get16BitRegister
  3780 ;; This function uses a non-reentrant model
  3781 ;;
  3782                           
  3783                           
  3784                           ;psect for function _MPU6050_ReadRegister
  3785  0221                     _MPU6050_ReadRegister:
  3786                           
  3787                           ;incstack = 0
  3788                           ; Regs used in _MPU6050_ReadRegister: [wreg-fsr0h+status,2+status,0+btemp+1+pclath+cstac
      +                          k]
  3789                           ;MPU6050_ReadRegister@reg stored from wreg
  3790  0221  1283               	bcf	3,5	;RP0=0, select bank0
  3791  0222  1303               	bcf	3,6	;RP1=0, select bank0
  3792  0223  00A0               	movwf	MPU6050_ReadRegister@reg
  3793  0224                     l1430:
  3794                           
  3795                           ;./MPU6050.h: 64:     memset(buffer, 0, buffer_length);
  3796  0224  3000               	movlw	0
  3797  0225  00F1               	movwf	memset@c
  3798  0226  00F2               	movwf	memset@c+1
  3799  0227  087B               	movf	MPU6050_ReadRegister@buffer_length,w
  3800  0228  00FC               	movwf	??_MPU6050_ReadRegister
  3801  0229  01FD               	clrf	??_MPU6050_ReadRegister+1
  3802  022A  087C               	movf	??_MPU6050_ReadRegister,w
  3803  022B  00F3               	movwf	memset@n
  3804  022C  087D               	movf	??_MPU6050_ReadRegister+1,w
  3805  022D  00F4               	movwf	memset@n+1
  3806  022E  087A               	movf	MPU6050_ReadRegister@buffer,w
  3807  022F  120A  158A  2699  120A  118A  	fcall	_memset
  3808  0234                     l1432:
  3809  0234                     l1434:
  3810                           
  3811                           ;./MPU6050.h: 67:     ackMode = I2C_Start(0xD2);
  3812  0234  30D2               	movlw	210
  3813  0235  120A  158A  265F  120A  118A  	fcall	_I2C_Start
  3814  023A  00FC               	movwf	??_MPU6050_ReadRegister
  3815  023B  087C               	movf	??_MPU6050_ReadRegister,w
  3816  023C  1283               	bcf	3,5	;RP0=0, select bank0
  3817  023D  1303               	bcf	3,6	;RP1=0, select bank0
  3818  023E  00A2               	movwf	MPU6050_ReadRegister@ackMode
  3819  023F                     l1436:
  3820                           
  3821                           ;./MPU6050.h: 69:     if (ackMode == ACK) {
  3822  023F  0822               	movf	MPU6050_ReadRegister@ackMode,w
  3823  0240  1D03               	btfss	3,2
  3824  0241  2A43               	goto	u1251
  3825  0242  2A44               	goto	u1250
  3826  0243                     u1251:
  3827  0243  2AC6               	goto	l1464
  3828  0244                     u1250:
  3829  0244                     l1438:
  3830                           
  3831                           ;./MPU6050.h: 70:         ackMode = I2C_Write(reg);
  3832  0244  0820               	movf	MPU6050_ReadRegister@reg,w
  3833  0245  120A  158A  2631  120A  118A  	fcall	_I2C_Write
  3834  024A  00FC               	movwf	??_MPU6050_ReadRegister
  3835  024B  087C               	movf	??_MPU6050_ReadRegister,w
  3836  024C  1283               	bcf	3,5	;RP0=0, select bank0
  3837  024D  1303               	bcf	3,6	;RP1=0, select bank0
  3838  024E  00A2               	movwf	MPU6050_ReadRegister@ackMode
  3839  024F                     l1440:
  3840                           
  3841                           ;./MPU6050.h: 72:         if (ackMode == ACK){
  3842  024F  0822               	movf	MPU6050_ReadRegister@ackMode,w
  3843  0250  1D03               	btfss	3,2
  3844  0251  2A53               	goto	u1261
  3845  0252  2A54               	goto	u1260
  3846  0253                     u1261:
  3847  0253  2AC6               	goto	l1464
  3848  0254                     u1260:
  3849  0254                     l1442:
  3850                           
  3851                           ;./MPU6050.h: 73:             ackMode = I2C_RepeatedStart(0xD3);
  3852  0254  30D3               	movlw	211
  3853  0255  120A  158A  2645  120A  118A  	fcall	_I2C_RepeatedStart
  3854  025A  00FC               	movwf	??_MPU6050_ReadRegister
  3855  025B  087C               	movf	??_MPU6050_ReadRegister,w
  3856  025C  1283               	bcf	3,5	;RP0=0, select bank0
  3857  025D  1303               	bcf	3,6	;RP1=0, select bank0
  3858  025E  00A2               	movwf	MPU6050_ReadRegister@ackMode
  3859  025F                     l1444:
  3860                           
  3861                           ;./MPU6050.h: 75:             if (ackMode == ACK && num_bytes == 1) {
  3862  025F  0822               	movf	MPU6050_ReadRegister@ackMode,w
  3863  0260  1D03               	btfss	3,2
  3864  0261  2A63               	goto	u1271
  3865  0262  2A64               	goto	u1270
  3866  0263                     u1271:
  3867  0263  2A77               	goto	l1450
  3868  0264                     u1270:
  3869  0264                     l1446:
  3870  0264  0378               	decf	MPU6050_ReadRegister@num_bytes,w
  3871  0265  0479               	iorwf	MPU6050_ReadRegister@num_bytes+1,w
  3872  0266  1D03               	btfss	3,2
  3873  0267  2A69               	goto	u1281
  3874  0268  2A6A               	goto	u1280
  3875  0269                     u1281:
  3876  0269  2A77               	goto	l1450
  3877  026A                     u1280:
  3878  026A                     l1448:
  3879                           
  3880                           ;./MPU6050.h: 76:                 buffer[0] = I2C_Read(NACK);
  3881  026A  3001               	movlw	1
  3882  026B  120A  158A  2679  120A  118A  	fcall	_I2C_Read
  3883  0270  00FC               	movwf	??_MPU6050_ReadRegister
  3884  0271  087A               	movf	MPU6050_ReadRegister@buffer,w
  3885  0272  0084               	movwf	4
  3886  0273  087C               	movf	??_MPU6050_ReadRegister,w
  3887  0274  1383               	bcf	3,7	;select IRP bank0
  3888  0275  0080               	movwf	0
  3889                           
  3890                           ;./MPU6050.h: 77:             } else if (ackMode == ACK && num_bytes > 1) {
  3891  0276  2AC6               	goto	l1464
  3892  0277                     l1450:
  3893  0277  0822               	movf	MPU6050_ReadRegister@ackMode,w
  3894  0278  1D03               	btfss	3,2
  3895  0279  2A7B               	goto	u1291
  3896  027A  2A7C               	goto	u1290
  3897  027B                     u1291:
  3898  027B  2AC6               	goto	l110
  3899  027C                     u1290:
  3900  027C                     l1452:
  3901  027C  0879               	movf	MPU6050_ReadRegister@num_bytes+1,w
  3902  027D  3A80               	xorlw	128
  3903  027E  00FF               	movwf	btemp+1
  3904  027F  3080               	movlw	128
  3905  0280  027F               	subwf	btemp+1,w
  3906  0281  1D03               	skipz
  3907  0282  2A85               	goto	u1305
  3908  0283  3002               	movlw	2
  3909  0284  0278               	subwf	MPU6050_ReadRegister@num_bytes,w
  3910  0285                     u1305:
  3911  0285  1C03               	skipc
  3912  0286  2A88               	goto	u1301
  3913  0287  2A89               	goto	u1300
  3914  0288                     u1301:
  3915  0288  2AC6               	goto	l110
  3916  0289                     u1300:
  3917  0289                     l1454:
  3918                           
  3919                           ;./MPU6050.h: 78:                 uint8_t index = 0;
  3920  0289  1283               	bcf	3,5	;RP0=0, select bank0
  3921  028A  1303               	bcf	3,6	;RP1=0, select bank0
  3922  028B  01A1               	clrf	MPU6050_ReadRegister@index
  3923  028C                     l1456:
  3924                           
  3925                           ;./MPU6050.h: 81:                     buffer[index] = I2C_Read(ACK);
  3926  028C  3000               	movlw	0
  3927  028D  120A  158A  2679  120A  118A  	fcall	_I2C_Read
  3928  0292  00FC               	movwf	??_MPU6050_ReadRegister
  3929  0293  1283               	bcf	3,5	;RP0=0, select bank0
  3930  0294  1303               	bcf	3,6	;RP1=0, select bank0
  3931  0295  0821               	movf	MPU6050_ReadRegister@index,w
  3932  0296  077A               	addwf	MPU6050_ReadRegister@buffer,w
  3933  0297  00FD               	movwf	??_MPU6050_ReadRegister+1
  3934  0298  087D               	movf	??_MPU6050_ReadRegister+1,w
  3935  0299  0084               	movwf	4
  3936  029A  087C               	movf	??_MPU6050_ReadRegister,w
  3937  029B  1383               	bcf	3,7	;select IRP bank0
  3938  029C  0080               	movwf	0
  3939  029D                     l1458:
  3940                           
  3941                           ;./MPU6050.h: 82:                     index++;
  3942  029D  3001               	movlw	1
  3943  029E  00FC               	movwf	??_MPU6050_ReadRegister
  3944  029F  087C               	movf	??_MPU6050_ReadRegister,w
  3945  02A0  07A1               	addwf	MPU6050_ReadRegister@index,f
  3946  02A1                     l1460:
  3947                           
  3948                           ;./MPU6050.h: 83:                 } while (index < num_bytes - 1);
  3949  02A1  0878               	movf	MPU6050_ReadRegister@num_bytes,w
  3950  02A2  3EFF               	addlw	255
  3951  02A3  00FC               	movwf	??_MPU6050_ReadRegister
  3952  02A4  0879               	movf	MPU6050_ReadRegister@num_bytes+1,w
  3953  02A5  1803               	skipnc
  3954  02A6  3E01               	addlw	1
  3955  02A7  3EFF               	addlw	255
  3956  02A8  00FD               	movwf	??_MPU6050_ReadRegister+1
  3957  02A9  087D               	movf	??_MPU6050_ReadRegister+1,w
  3958  02AA  3A80               	xorlw	128
  3959  02AB  3C80               	sublw	128
  3960  02AC  1D03               	skipz
  3961  02AD  2AB0               	goto	u1315
  3962  02AE  087C               	movf	??_MPU6050_ReadRegister,w
  3963  02AF  0221               	subwf	MPU6050_ReadRegister@index,w
  3964  02B0                     u1315:
  3965  02B0  1C03               	skipc
  3966  02B1  2AB3               	goto	u1311
  3967  02B2  2AB4               	goto	u1310
  3968  02B3                     u1311:
  3969  02B3  2A8C               	goto	l1456
  3970  02B4                     u1310:
  3971  02B4                     l1462:
  3972                           
  3973                           ;./MPU6050.h: 85:                 buffer[index] = I2C_Read(NACK);
  3974  02B4  3001               	movlw	1
  3975  02B5  120A  158A  2679  120A  118A  	fcall	_I2C_Read
  3976  02BA  00FC               	movwf	??_MPU6050_ReadRegister
  3977  02BB  1283               	bcf	3,5	;RP0=0, select bank0
  3978  02BC  1303               	bcf	3,6	;RP1=0, select bank0
  3979  02BD  0821               	movf	MPU6050_ReadRegister@index,w
  3980  02BE  077A               	addwf	MPU6050_ReadRegister@buffer,w
  3981  02BF  00FD               	movwf	??_MPU6050_ReadRegister+1
  3982  02C0  087D               	movf	??_MPU6050_ReadRegister+1,w
  3983  02C1  0084               	movwf	4
  3984  02C2  087C               	movf	??_MPU6050_ReadRegister,w
  3985  02C3  1383               	bcf	3,7	;select IRP bank0
  3986  02C4  0080               	movwf	0
  3987  02C5  2AC6               	goto	l1464
  3988  02C6                     l110:	
  3989                           ;./MPU6050.h: 88:         }
  3990                           
  3991  02C6                     l1464:
  3992                           
  3993                           ;./MPU6050.h: 91:     I2C_Stop();
  3994  02C6  120A  158A  2623  120A  118A  	fcall	_I2C_Stop
  3995  02CB                     l116:
  3996  02CB  0008               	return
  3997  02CC                     __end_of_MPU6050_ReadRegister:
  3998                           
  3999                           	psect	text15
  4000  0E99                     __ptext15:	
  4001 ;; *************** function _memset *****************
  4002 ;; Defined at:
  4003 ;;		line 8 in file "C:\Program Files\Microchip\xc8\v2.32\pic\sources\c90\common\memset.c"
  4004 ;; Parameters:    Size  Location     Type
  4005 ;;  p1              1    wreg     PTR void 
  4006 ;;		 -> buffer(2), 
  4007 ;;  c               2    0[COMMON] int 
  4008 ;;  n               2    2[COMMON] unsigned int 
  4009 ;; Auto vars:     Size  Location     Type
  4010 ;;  p1              1    5[COMMON] PTR void 
  4011 ;;		 -> buffer(2), 
  4012 ;;  p               1    6[COMMON] PTR unsigned char 
  4013 ;;		 -> buffer(2), 
  4014 ;; Return value:  Size  Location     Type
  4015 ;;                  1    wreg      PTR void 
  4016 ;; Registers used:
  4017 ;;		wreg, fsr0l, fsr0h, status,2, status,0
  4018 ;; Tracked objects:
  4019 ;;		On entry : 0/0
  4020 ;;		On exit  : 0/0
  4021 ;;		Unchanged: 0/0
  4022 ;; Data sizes:     COMMON   BANK0   BANK1   BANK3   BANK2
  4023 ;;      Params:         4       0       0       0       0
  4024 ;;      Locals:         2       0       0       0       0
  4025 ;;      Temps:          1       0       0       0       0
  4026 ;;      Totals:         7       0       0       0       0
  4027 ;;Total ram usage:        7 bytes
  4028 ;; Hardware stack levels used: 1
  4029 ;; This function calls:
  4030 ;;		Nothing
  4031 ;; This function is called by:
  4032 ;;		_MPU6050_ReadRegister
  4033 ;; This function uses a non-reentrant model
  4034 ;;
  4035                           
  4036                           
  4037                           ;psect for function _memset
  4038  0E99                     _memset:
  4039                           
  4040                           ;incstack = 0
  4041                           ; Regs used in _memset: [wreg-fsr0h+status,2+status,0]
  4042                           ;memset@p1 stored from wreg
  4043  0E99  00F6               	movwf	memset@p1
  4044  0E9A                     l1422:
  4045  0E9A  0876               	movf	memset@p1,w
  4046  0E9B  00F5               	movwf	??_memset
  4047  0E9C  0875               	movf	??_memset,w
  4048  0E9D  00F7               	movwf	memset@p
  4049  0E9E  2EAA               	goto	l1428
  4050  0E9F                     l1424:
  4051  0E9F  0871               	movf	memset@c,w
  4052  0EA0  00F5               	movwf	??_memset
  4053  0EA1  0877               	movf	memset@p,w
  4054  0EA2  0084               	movwf	4
  4055  0EA3  0875               	movf	??_memset,w
  4056  0EA4  1383               	bcf	3,7	;select IRP bank0
  4057  0EA5  0080               	movwf	0
  4058  0EA6                     l1426:
  4059  0EA6  3001               	movlw	1
  4060  0EA7  00F5               	movwf	??_memset
  4061  0EA8  0875               	movf	??_memset,w
  4062  0EA9  07F7               	addwf	memset@p,f
  4063  0EAA                     l1428:
  4064  0EAA  3001               	movlw	1
  4065  0EAB  02F3               	subwf	memset@n,f
  4066  0EAC  3000               	movlw	0
  4067  0EAD  1C03               	skipc
  4068  0EAE  03F4               	decf	memset@n+1,f
  4069  0EAF  02F4               	subwf	memset@n+1,f
  4070  0EB0  0A73               	incf	memset@n,w
  4071  0EB1  1D03               	skipz
  4072  0EB2  2EB7               	goto	u1241
  4073  0EB3  0A74               	incf	memset@n+1,w
  4074  0EB4  1D03               	btfss	3,2
  4075  0EB5  2EB7               	goto	u1241
  4076  0EB6  2EB8               	goto	u1240
  4077  0EB7                     u1241:
  4078  0EB7  2E9F               	goto	l1424
  4079  0EB8                     u1240:
  4080  0EB8                     l702:
  4081  0EB8  0008               	return
  4082  0EB9                     __end_of_memset:
  4083                           
  4084                           	psect	text16
  4085  0E23                     __ptext16:	
  4086 ;; *************** function _I2C_Stop *****************
  4087 ;; Defined at:
  4088 ;;		line 74 in file "./i2c.h"
  4089 ;; Parameters:    Size  Location     Type
  4090 ;;		None
  4091 ;; Auto vars:     Size  Location     Type
  4092 ;;		None
  4093 ;; Return value:  Size  Location     Type
  4094 ;;                  1    wreg      unsigned char 
  4095 ;; Registers used:
  4096 ;;		wreg
  4097 ;; Tracked objects:
  4098 ;;		On entry : 0/0
  4099 ;;		On exit  : 0/0
  4100 ;;		Unchanged: 0/0
  4101 ;; Data sizes:     COMMON   BANK0   BANK1   BANK3   BANK2
  4102 ;;      Params:         0       0       0       0       0
  4103 ;;      Locals:         0       0       0       0       0
  4104 ;;      Temps:          0       0       0       0       0
  4105 ;;      Totals:         0       0       0       0       0
  4106 ;;Total ram usage:        0 bytes
  4107 ;; Hardware stack levels used: 1
  4108 ;; This function calls:
  4109 ;;		Nothing
  4110 ;; This function is called by:
  4111 ;;		_MPU6050_SetRegister
  4112 ;;		_MPU6050_ReadRegister
  4113 ;; This function uses a non-reentrant model
  4114 ;;
  4115                           
  4116                           
  4117                           ;psect for function _I2C_Stop
  4118  0E23                     _I2C_Stop:
  4119  0E23                     l1400:	
  4120                           ;incstack = 0
  4121                           ; Regs used in _I2C_Stop: [wreg]
  4122                           
  4123                           
  4124                           ;./i2c.h: 75:     SSPCON2bits.PEN = 1;
  4125  0E23  1683               	bsf	3,5	;RP0=1, select bank1
  4126  0E24  1303               	bcf	3,6	;RP1=0, select bank1
  4127  0E25  1511               	bsf	17,2	;volatile
  4128  0E26                     l71:	
  4129                           ;./i2c.h: 76:     while(SSPCON2bits.PEN);
  4130                           
  4131  0E26  1911               	btfsc	17,2	;volatile
  4132  0E27  2E29               	goto	u1211
  4133  0E28  2E2A               	goto	u1210
  4134  0E29                     u1211:
  4135  0E29  2E26               	goto	l71
  4136  0E2A                     u1210:
  4137  0E2A                     l73:
  4138                           
  4139                           ;./i2c.h: 77:     SSPIF = 0;
  4140  0E2A  1283               	bcf	3,5	;RP0=0, select bank0
  4141  0E2B  1303               	bcf	3,6	;RP1=0, select bank0
  4142  0E2C  118C               	bcf	12,3	;volatile
  4143                           
  4144                           ;./i2c.h: 78:     if (SSPSTATbits.P)
  4145  0E2D  1683               	bsf	3,5	;RP0=1, select bank1
  4146  0E2E  1303               	bcf	3,6	;RP1=0, select bank1
  4147  0E2F  0814               	movf	20,w	;volatile
  4148  0E30                     l75:
  4149  0E30  0008               	return
  4150  0E31                     __end_of_I2C_Stop:
  4151                           
  4152                           	psect	text17
  4153  0E5F                     __ptext17:	
  4154 ;; *************** function _I2C_Start *****************
  4155 ;; Defined at:
  4156 ;;		line 36 in file "./i2c.h"
  4157 ;; Parameters:    Size  Location     Type
  4158 ;;  address         1    wreg     unsigned char 
  4159 ;; Auto vars:     Size  Location     Type
  4160 ;;  address         1    1[COMMON] unsigned char 
  4161 ;; Return value:  Size  Location     Type
  4162 ;;                  1    wreg      enum E1561
  4163 ;; Registers used:
  4164 ;;		wreg, status,2, status,0, pclath, cstack
  4165 ;; Tracked objects:
  4166 ;;		On entry : 0/0
  4167 ;;		On exit  : 0/0
  4168 ;;		Unchanged: 0/0
  4169 ;; Data sizes:     COMMON   BANK0   BANK1   BANK3   BANK2
  4170 ;;      Params:         0       0       0       0       0
  4171 ;;      Locals:         1       0       0       0       0
  4172 ;;      Temps:          0       0       0       0       0
  4173 ;;      Totals:         1       0       0       0       0
  4174 ;;Total ram usage:        1 bytes
  4175 ;; Hardware stack levels used: 1
  4176 ;; Hardware stack levels required when called: 2
  4177 ;; This function calls:
  4178 ;;		_I2C_Write
  4179 ;; This function is called by:
  4180 ;;		_MPU6050_SetRegister
  4181 ;;		_MPU6050_ReadRegister
  4182 ;; This function uses a non-reentrant model
  4183 ;;
  4184                           
  4185                           
  4186                           ;psect for function _I2C_Start
  4187  0E5F                     _I2C_Start:
  4188                           
  4189                           ;incstack = 0
  4190                           ; Regs used in _I2C_Start: [wreg+status,2+status,0+pclath+cstack]
  4191                           ;I2C_Start@address stored from wreg
  4192  0E5F  00F2               	movwf	I2C_Start@address
  4193  0E60                     l1380:
  4194                           
  4195                           ;./i2c.h: 37:     SSPCON2bits.SEN = 1;
  4196  0E60  1683               	bsf	3,5	;RP0=1, select bank1
  4197  0E61  1303               	bcf	3,6	;RP1=0, select bank1
  4198  0E62  1411               	bsf	17,0	;volatile
  4199  0E63                     l46:	
  4200                           ;./i2c.h: 38:     while (SSPCON2bits.SEN);
  4201                           
  4202  0E63  1811               	btfsc	17,0	;volatile
  4203  0E64  2E66               	goto	u1171
  4204  0E65  2E67               	goto	u1170
  4205  0E66                     u1171:
  4206  0E66  2E63               	goto	l46
  4207  0E67                     u1170:
  4208  0E67                     l48:
  4209                           
  4210                           ;./i2c.h: 39:     SSPIF = 0;
  4211  0E67  1283               	bcf	3,5	;RP0=0, select bank0
  4212  0E68  1303               	bcf	3,6	;RP1=0, select bank0
  4213  0E69  118C               	bcf	12,3	;volatile
  4214                           
  4215                           ;./i2c.h: 41:     if(!SSPSTATbits.S)
  4216  0E6A  1683               	bsf	3,5	;RP0=1, select bank1
  4217  0E6B  1303               	bcf	3,6	;RP1=0, select bank1
  4218  0E6C  1994               	btfsc	20,3	;volatile
  4219  0E6D  2E6F               	goto	u1181
  4220  0E6E  2E70               	goto	u1180
  4221  0E6F                     u1181:
  4222  0E6F  2E72               	goto	l1386
  4223  0E70                     u1180:
  4224  0E70                     l1382:
  4225                           
  4226                           ;./i2c.h: 42:         return 1;
  4227  0E70  3001               	movlw	1
  4228  0E71  2E78               	goto	l50
  4229  0E72                     l1386:
  4230                           
  4231                           ;./i2c.h: 44:     return I2C_Write(address);
  4232  0E72  0872               	movf	I2C_Start@address,w
  4233  0E73  120A  158A  2631  120A  158A  	fcall	_I2C_Write
  4234  0E78                     l50:
  4235  0E78  0008               	return
  4236  0E79                     __end_of_I2C_Start:
  4237                           
  4238                           	psect	text18
  4239  0E45                     __ptext18:	
  4240 ;; *************** function _I2C_RepeatedStart *****************
  4241 ;; Defined at:
  4242 ;;		line 47 in file "./i2c.h"
  4243 ;; Parameters:    Size  Location     Type
  4244 ;;  address         1    wreg     unsigned char 
  4245 ;; Auto vars:     Size  Location     Type
  4246 ;;  address         1    1[COMMON] unsigned char 
  4247 ;; Return value:  Size  Location     Type
  4248 ;;                  1    wreg      enum E1561
  4249 ;; Registers used:
  4250 ;;		wreg, status,2, status,0, pclath, cstack
  4251 ;; Tracked objects:
  4252 ;;		On entry : 0/0
  4253 ;;		On exit  : 0/0
  4254 ;;		Unchanged: 0/0
  4255 ;; Data sizes:     COMMON   BANK0   BANK1   BANK3   BANK2
  4256 ;;      Params:         0       0       0       0       0
  4257 ;;      Locals:         1       0       0       0       0
  4258 ;;      Temps:          0       0       0       0       0
  4259 ;;      Totals:         1       0       0       0       0
  4260 ;;Total ram usage:        1 bytes
  4261 ;; Hardware stack levels used: 1
  4262 ;; Hardware stack levels required when called: 2
  4263 ;; This function calls:
  4264 ;;		_I2C_Write
  4265 ;; This function is called by:
  4266 ;;		_MPU6050_ReadRegister
  4267 ;; This function uses a non-reentrant model
  4268 ;;
  4269                           
  4270                           
  4271                           ;psect for function _I2C_RepeatedStart
  4272  0E45                     _I2C_RepeatedStart:
  4273                           
  4274                           ;incstack = 0
  4275                           ; Regs used in _I2C_RepeatedStart: [wreg+status,2+status,0+pclath+cstack]
  4276                           ;I2C_RepeatedStart@address stored from wreg
  4277  0E45  00F2               	movwf	I2C_RepeatedStart@address
  4278  0E46                     l1390:
  4279                           
  4280                           ;./i2c.h: 48:     SSPCON2bits.RSEN = 1;
  4281  0E46  1683               	bsf	3,5	;RP0=1, select bank1
  4282  0E47  1303               	bcf	3,6	;RP1=0, select bank1
  4283  0E48  1491               	bsf	17,1	;volatile
  4284  0E49                     l53:	
  4285                           ;./i2c.h: 50:     while (SSPCON2bits.RSEN);
  4286                           
  4287  0E49  1891               	btfsc	17,1	;volatile
  4288  0E4A  2E4C               	goto	u1191
  4289  0E4B  2E4D               	goto	u1190
  4290  0E4C                     u1191:
  4291  0E4C  2E49               	goto	l53
  4292  0E4D                     u1190:
  4293  0E4D                     l55:
  4294                           
  4295                           ;./i2c.h: 51:     SSPIF = 0;
  4296  0E4D  1283               	bcf	3,5	;RP0=0, select bank0
  4297  0E4E  1303               	bcf	3,6	;RP1=0, select bank0
  4298  0E4F  118C               	bcf	12,3	;volatile
  4299                           
  4300                           ;./i2c.h: 53:     if(!SSPSTATbits.S)
  4301  0E50  1683               	bsf	3,5	;RP0=1, select bank1
  4302  0E51  1303               	bcf	3,6	;RP1=0, select bank1
  4303  0E52  1994               	btfsc	20,3	;volatile
  4304  0E53  2E55               	goto	u1201
  4305  0E54  2E56               	goto	u1200
  4306  0E55                     u1201:
  4307  0E55  2E58               	goto	l1396
  4308  0E56                     u1200:
  4309  0E56                     l1392:
  4310                           
  4311                           ;./i2c.h: 54:         return 1;
  4312  0E56  3001               	movlw	1
  4313  0E57  2E5E               	goto	l57
  4314  0E58                     l1396:
  4315                           
  4316                           ;./i2c.h: 56:     return I2C_Write(address);
  4317  0E58  0872               	movf	I2C_RepeatedStart@address,w
  4318  0E59  120A  158A  2631  120A  158A  	fcall	_I2C_Write
  4319  0E5E                     l57:
  4320  0E5E  0008               	return
  4321  0E5F                     __end_of_I2C_RepeatedStart:
  4322                           
  4323                           	psect	text19
  4324  0E31                     __ptext19:	
  4325 ;; *************** function _I2C_Write *****************
  4326 ;; Defined at:
  4327 ;;		line 59 in file "./i2c.h"
  4328 ;; Parameters:    Size  Location     Type
  4329 ;;  data            1    wreg     unsigned char 
  4330 ;; Auto vars:     Size  Location     Type
  4331 ;;  data            1    0[COMMON] unsigned char 
  4332 ;; Return value:  Size  Location     Type
  4333 ;;                  1    wreg      enum E1561
  4334 ;; Registers used:
  4335 ;;		wreg, status,2, status,0, pclath, cstack
  4336 ;; Tracked objects:
  4337 ;;		On entry : 0/0
  4338 ;;		On exit  : 0/0
  4339 ;;		Unchanged: 0/0
  4340 ;; Data sizes:     COMMON   BANK0   BANK1   BANK3   BANK2
  4341 ;;      Params:         0       0       0       0       0
  4342 ;;      Locals:         1       0       0       0       0
  4343 ;;      Temps:          0       0       0       0       0
  4344 ;;      Totals:         1       0       0       0       0
  4345 ;;Total ram usage:        1 bytes
  4346 ;; Hardware stack levels used: 1
  4347 ;; Hardware stack levels required when called: 1
  4348 ;; This function calls:
  4349 ;;		_I2C_Wait
  4350 ;; This function is called by:
  4351 ;;		_I2C_Start
  4352 ;;		_I2C_RepeatedStart
  4353 ;;		_MPU6050_SetRegister
  4354 ;;		_MPU6050_ReadRegister
  4355 ;; This function uses a non-reentrant model
  4356 ;;
  4357                           
  4358                           
  4359                           ;psect for function _I2C_Write
  4360  0E31                     _I2C_Write:
  4361                           
  4362                           ;incstack = 0
  4363                           ; Regs used in _I2C_Write: [wreg+status,2+status,0+pclath+cstack]
  4364                           ;I2C_Write@data stored from wreg
  4365  0E31  00F1               	movwf	I2C_Write@data
  4366  0E32                     l1360:
  4367                           
  4368                           ;./i2c.h: 60:     SSPBUF = data;
  4369  0E32  0871               	movf	I2C_Write@data,w
  4370  0E33  1283               	bcf	3,5	;RP0=0, select bank0
  4371  0E34  1303               	bcf	3,6	;RP1=0, select bank0
  4372  0E35  0093               	movwf	19	;volatile
  4373  0E36                     l1362:
  4374                           
  4375                           ;./i2c.h: 61:     I2C_Wait();
  4376  0E36  120A  158A  2601  120A  158A  	fcall	_I2C_Wait
  4377  0E3B                     l1364:
  4378                           
  4379                           ;./i2c.h: 63:     if(ACKSTAT)
  4380  0E3B  1683               	bsf	3,5	;RP0=1, select bank1
  4381  0E3C  1303               	bcf	3,6	;RP1=0, select bank1
  4382  0E3D  1F11               	btfss	17,6	;volatile
  4383  0E3E  2E40               	goto	u1141
  4384  0E3F  2E41               	goto	u1140
  4385  0E40                     u1141:
  4386  0E40  2E43               	goto	l1372
  4387  0E41                     u1140:
  4388  0E41                     l1366:
  4389                           
  4390                           ;./i2c.h: 64:         return NACK;
  4391  0E41  3001               	movlw	1
  4392  0E42  2E44               	goto	l61
  4393  0E43                     l1372:
  4394                           
  4395                           ;./i2c.h: 66:         return ACK;
  4396  0E43  3000               	movlw	0
  4397  0E44                     l61:
  4398  0E44  0008               	return
  4399  0E45                     __end_of_I2C_Write:
  4400                           
  4401                           	psect	text20
  4402  0E01                     __ptext20:	
  4403 ;; *************** function _I2C_Wait *****************
  4404 ;; Defined at:
  4405 ;;		line 69 in file "./i2c.h"
  4406 ;; Parameters:    Size  Location     Type
  4407 ;;		None
  4408 ;; Auto vars:     Size  Location     Type
  4409 ;;		None
  4410 ;; Return value:  Size  Location     Type
  4411 ;;                  1    wreg      void 
  4412 ;; Registers used:
  4413 ;;		None
  4414 ;; Tracked objects:
  4415 ;;		On entry : 0/0
  4416 ;;		On exit  : 0/0
  4417 ;;		Unchanged: 0/0
  4418 ;; Data sizes:     COMMON   BANK0   BANK1   BANK3   BANK2
  4419 ;;      Params:         0       0       0       0       0
  4420 ;;      Locals:         0       0       0       0       0
  4421 ;;      Temps:          0       0       0       0       0
  4422 ;;      Totals:         0       0       0       0       0
  4423 ;;Total ram usage:        0 bytes
  4424 ;; Hardware stack levels used: 1
  4425 ;; This function calls:
  4426 ;;		Nothing
  4427 ;; This function is called by:
  4428 ;;		_I2C_Write
  4429 ;; This function uses a non-reentrant model
  4430 ;;
  4431                           
  4432                           
  4433                           ;psect for function _I2C_Wait
  4434  0E01                     _I2C_Wait:
  4435  0E01                     l1358:	
  4436                           ;incstack = 0
  4437                           ; Regs used in _I2C_Wait: []
  4438                           
  4439  0E01                     l65:	
  4440                           ;./i2c.h: 70:     while (!SSPIF);
  4441                           
  4442  0E01  1283               	bcf	3,5	;RP0=0, select bank0
  4443  0E02  1303               	bcf	3,6	;RP1=0, select bank0
  4444  0E03  1D8C               	btfss	12,3	;volatile
  4445  0E04  2E06               	goto	u1131
  4446  0E05  2E07               	goto	u1130
  4447  0E06                     u1131:
  4448  0E06  2E01               	goto	l65
  4449  0E07                     u1130:
  4450  0E07                     l67:
  4451                           
  4452                           ;./i2c.h: 71:     SSPIF = 0;
  4453  0E07  118C               	bcf	12,3	;volatile
  4454  0E08                     l68:
  4455  0E08  0008               	return
  4456  0E09                     __end_of_I2C_Wait:
  4457                           
  4458                           	psect	text21
  4459  0E79                     __ptext21:	
  4460 ;; *************** function _I2C_Read *****************
  4461 ;; Defined at:
  4462 ;;		line 84 in file "./i2c.h"
  4463 ;; Parameters:    Size  Location     Type
  4464 ;;  mode            1    wreg     enum E1561
  4465 ;; Auto vars:     Size  Location     Type
  4466 ;;  mode            1    1[COMMON] enum E1561
  4467 ;;  buffer          1    2[COMMON] unsigned char 
  4468 ;; Return value:  Size  Location     Type
  4469 ;;                  1    wreg      unsigned char 
  4470 ;; Registers used:
  4471 ;;		wreg, status,2, status,0, pclath, cstack
  4472 ;; Tracked objects:
  4473 ;;		On entry : 0/0
  4474 ;;		On exit  : 0/0
  4475 ;;		Unchanged: 0/0
  4476 ;; Data sizes:     COMMON   BANK0   BANK1   BANK3   BANK2
  4477 ;;      Params:         0       0       0       0       0
  4478 ;;      Locals:         2       0       0       0       0
  4479 ;;      Temps:          1       0       0       0       0
  4480 ;;      Totals:         3       0       0       0       0
  4481 ;;Total ram usage:        3 bytes
  4482 ;; Hardware stack levels used: 1
  4483 ;; Hardware stack levels required when called: 1
  4484 ;; This function calls:
  4485 ;;		_I2C_Ack
  4486 ;;		_I2C_Nack
  4487 ;; This function is called by:
  4488 ;;		_MPU6050_ReadRegister
  4489 ;; This function uses a non-reentrant model
  4490 ;;
  4491                           
  4492                           
  4493                           ;psect for function _I2C_Read
  4494  0E79                     _I2C_Read:
  4495                           
  4496                           ;incstack = 0
  4497                           ; Regs used in _I2C_Read: [wreg+status,2+status,0+pclath+cstack]
  4498                           ;I2C_Read@mode stored from wreg
  4499  0E79  00F2               	movwf	I2C_Read@mode
  4500  0E7A                     l1406:
  4501  0E7A                     l1408:
  4502                           
  4503                           ;./i2c.h: 86:     SSPCON2bits.RCEN = 1;
  4504  0E7A  1683               	bsf	3,5	;RP0=1, select bank1
  4505  0E7B  1303               	bcf	3,6	;RP1=0, select bank1
  4506  0E7C  1591               	bsf	17,3	;volatile
  4507  0E7D                     l79:	
  4508                           ;./i2c.h: 88:     while (!SSPSTATbits.BF);
  4509                           
  4510  0E7D  1C14               	btfss	20,0	;volatile
  4511  0E7E  2E80               	goto	u1221
  4512  0E7F  2E81               	goto	u1220
  4513  0E80                     u1221:
  4514  0E80  2E7D               	goto	l79
  4515  0E81                     u1220:
  4516  0E81                     l1410:
  4517                           
  4518                           ;./i2c.h: 89:     buffer = SSPBUF;
  4519  0E81  1283               	bcf	3,5	;RP0=0, select bank0
  4520  0E82  1303               	bcf	3,6	;RP1=0, select bank0
  4521  0E83  0813               	movf	19,w	;volatile
  4522  0E84  00F1               	movwf	??_I2C_Read
  4523  0E85  0871               	movf	??_I2C_Read,w
  4524  0E86  00F3               	movwf	I2C_Read@buffer
  4525  0E87                     l1412:
  4526                           
  4527                           ;./i2c.h: 91:     if(mode == ACK) {
  4528  0E87  0872               	movf	I2C_Read@mode,w
  4529  0E88  1D03               	btfss	3,2
  4530  0E89  2E8B               	goto	u1231
  4531  0E8A  2E8C               	goto	u1230
  4532  0E8B                     u1231:
  4533  0E8B  2E92               	goto	l1416
  4534  0E8C                     u1230:
  4535  0E8C                     l1414:
  4536                           
  4537                           ;./i2c.h: 92:         I2C_Ack();
  4538  0E8C  120A  158A  2611  120A  158A  	fcall	_I2C_Ack
  4539                           
  4540                           ;./i2c.h: 93:     } else {
  4541  0E91  2E97               	goto	l1418
  4542  0E92                     l1416:
  4543                           
  4544                           ;./i2c.h: 94:         I2C_Nack();
  4545  0E92  120A  158A  261A  120A  158A  	fcall	_I2C_Nack
  4546  0E97                     l1418:
  4547                           
  4548                           ;./i2c.h: 97:     return buffer;
  4549  0E97  0873               	movf	I2C_Read@buffer,w
  4550  0E98                     l84:
  4551  0E98  0008               	return
  4552  0E99                     __end_of_I2C_Read:
  4553                           
  4554                           	psect	text22
  4555  0E1A                     __ptext22:	
  4556 ;; *************** function _I2C_Nack *****************
  4557 ;; Defined at:
  4558 ;;		line 106 in file "./i2c.h"
  4559 ;; Parameters:    Size  Location     Type
  4560 ;;		None
  4561 ;; Auto vars:     Size  Location     Type
  4562 ;;		None
  4563 ;; Return value:  Size  Location     Type
  4564 ;;                  1    wreg      void 
  4565 ;; Registers used:
  4566 ;;		None
  4567 ;; Tracked objects:
  4568 ;;		On entry : 0/0
  4569 ;;		On exit  : 0/0
  4570 ;;		Unchanged: 0/0
  4571 ;; Data sizes:     COMMON   BANK0   BANK1   BANK3   BANK2
  4572 ;;      Params:         0       0       0       0       0
  4573 ;;      Locals:         0       0       0       0       0
  4574 ;;      Temps:          0       0       0       0       0
  4575 ;;      Totals:         0       0       0       0       0
  4576 ;;Total ram usage:        0 bytes
  4577 ;; Hardware stack levels used: 1
  4578 ;; This function calls:
  4579 ;;		Nothing
  4580 ;; This function is called by:
  4581 ;;		_I2C_Read
  4582 ;; This function uses a non-reentrant model
  4583 ;;
  4584                           
  4585                           
  4586                           ;psect for function _I2C_Nack
  4587  0E1A                     _I2C_Nack:
  4588  0E1A                     l1378:	
  4589                           ;incstack = 0
  4590                           ; Regs used in _I2C_Nack: []
  4591                           
  4592                           
  4593                           ;./i2c.h: 107:     SSPCON2bits.ACKDT = 1;
  4594  0E1A  1683               	bsf	3,5	;RP0=1, select bank1
  4595  0E1B  1303               	bcf	3,6	;RP1=0, select bank1
  4596  0E1C  1691               	bsf	17,5	;volatile
  4597                           
  4598                           ;./i2c.h: 108:     SSPCON2bits.ACKEN = 1;
  4599  0E1D  1611               	bsf	17,4	;volatile
  4600  0E1E                     l93:	
  4601                           ;./i2c.h: 109:     while(SSPCON2bits.ACKEN);
  4602                           
  4603  0E1E  1A11               	btfsc	17,4	;volatile
  4604  0E1F  2E21               	goto	u1161
  4605  0E20  2E22               	goto	u1160
  4606  0E21                     u1161:
  4607  0E21  2E1E               	goto	l93
  4608  0E22                     u1160:
  4609  0E22                     l96:
  4610  0E22  0008               	return
  4611  0E23                     __end_of_I2C_Nack:
  4612                           
  4613                           	psect	text23
  4614  0E11                     __ptext23:	
  4615 ;; *************** function _I2C_Ack *****************
  4616 ;; Defined at:
  4617 ;;		line 100 in file "./i2c.h"
  4618 ;; Parameters:    Size  Location     Type
  4619 ;;		None
  4620 ;; Auto vars:     Size  Location     Type
  4621 ;;		None
  4622 ;; Return value:  Size  Location     Type
  4623 ;;                  1    wreg      void 
  4624 ;; Registers used:
  4625 ;;		None
  4626 ;; Tracked objects:
  4627 ;;		On entry : 0/0
  4628 ;;		On exit  : 0/0
  4629 ;;		Unchanged: 0/0
  4630 ;; Data sizes:     COMMON   BANK0   BANK1   BANK3   BANK2
  4631 ;;      Params:         0       0       0       0       0
  4632 ;;      Locals:         0       0       0       0       0
  4633 ;;      Temps:          0       0       0       0       0
  4634 ;;      Totals:         0       0       0       0       0
  4635 ;;Total ram usage:        0 bytes
  4636 ;; Hardware stack levels used: 1
  4637 ;; This function calls:
  4638 ;;		Nothing
  4639 ;; This function is called by:
  4640 ;;		_I2C_Read
  4641 ;; This function uses a non-reentrant model
  4642 ;;
  4643                           
  4644                           
  4645                           ;psect for function _I2C_Ack
  4646  0E11                     _I2C_Ack:
  4647  0E11                     l1376:	
  4648                           ;incstack = 0
  4649                           ; Regs used in _I2C_Ack: []
  4650                           
  4651                           
  4652                           ;./i2c.h: 101:     SSPCON2bits.ACKDT = 0;
  4653  0E11  1683               	bsf	3,5	;RP0=1, select bank1
  4654  0E12  1303               	bcf	3,6	;RP1=0, select bank1
  4655  0E13  1291               	bcf	17,5	;volatile
  4656                           
  4657                           ;./i2c.h: 102:     SSPCON2bits.ACKEN = 1;
  4658  0E14  1611               	bsf	17,4	;volatile
  4659  0E15                     l87:	
  4660                           ;./i2c.h: 103:     while(SSPCON2bits.ACKEN);
  4661                           
  4662  0E15  1A11               	btfsc	17,4	;volatile
  4663  0E16  2E18               	goto	u1151
  4664  0E17  2E19               	goto	u1150
  4665  0E18                     u1151:
  4666  0E18  2E15               	goto	l87
  4667  0E19                     u1150:
  4668  0E19                     l90:
  4669  0E19  0008               	return
  4670  0E1A                     __end_of_I2C_Ack:
  4671                           
  4672                           	psect	text24
  4673  0009                     __ptext24:	
  4674 ;; *************** function _I2C_Init *****************
  4675 ;; Defined at:
  4676 ;;		line 17 in file "./i2c.h"
  4677 ;; Parameters:    Size  Location     Type
  4678 ;;  mode            1    wreg     enum E1557
  4679 ;; Auto vars:     Size  Location     Type
  4680 ;;  mode            1    0[COMMON] enum E1557
  4681 ;; Return value:  Size  Location     Type
  4682 ;;                  1    wreg      void 
  4683 ;; Registers used:
  4684 ;;		wreg, status,2, status,0
  4685 ;; Tracked objects:
  4686 ;;		On entry : 0/0
  4687 ;;		On exit  : 0/0
  4688 ;;		Unchanged: 0/0
  4689 ;; Data sizes:     COMMON   BANK0   BANK1   BANK3   BANK2
  4690 ;;      Params:         0       0       0       0       0
  4691 ;;      Locals:         1       0       0       0       0
  4692 ;;      Temps:          0       0       0       0       0
  4693 ;;      Totals:         1       0       0       0       0
  4694 ;;Total ram usage:        1 bytes
  4695 ;; Hardware stack levels used: 1
  4696 ;; This function calls:
  4697 ;;		Nothing
  4698 ;; This function is called by:
  4699 ;;		_main
  4700 ;; This function uses a non-reentrant model
  4701 ;;
  4702                           
  4703                           
  4704                           ;psect for function _I2C_Init
  4705  0009                     _I2C_Init:
  4706                           
  4707                           ;incstack = 0
  4708                           ; Regs used in _I2C_Init: [wreg+status,2+status,0]
  4709                           ;I2C_Init@mode stored from wreg
  4710  0009  00F1               	movwf	I2C_Init@mode
  4711  000A                     l1864:
  4712                           
  4713                           ;./i2c.h: 18:     TRISCbits.TRISC3 = 1;
  4714  000A  1683               	bsf	3,5	;RP0=1, select bank1
  4715  000B  1303               	bcf	3,6	;RP1=0, select bank1
  4716  000C  1587               	bsf	7,3	;volatile
  4717                           
  4718                           ;./i2c.h: 19:     TRISCbits.TRISC4 = 1;
  4719  000D  1607               	bsf	7,4	;volatile
  4720                           
  4721                           ;./i2c.h: 20:     SSPCONbits.SSPEN = 1;
  4722  000E  1283               	bcf	3,5	;RP0=0, select bank0
  4723  000F  1303               	bcf	3,6	;RP1=0, select bank0
  4724  0010  1694               	bsf	20,5	;volatile
  4725  0011                     l1866:
  4726                           
  4727                           ;./i2c.h: 21:     SSPSTAT = 0;
  4728  0011  1683               	bsf	3,5	;RP0=1, select bank1
  4729  0012  1303               	bcf	3,6	;RP1=0, select bank1
  4730  0013  0194               	clrf	20	;volatile
  4731  0014                     l1868:
  4732                           
  4733                           ;./i2c.h: 22:     SSPSTATbits.SMP = 1;
  4734  0014  1794               	bsf	20,7	;volatile
  4735  0015                     l1870:
  4736                           
  4737                           ;./i2c.h: 24:     if(mode == I2C_MASTER_MODE) {
  4738  0015  0871               	movf	I2C_Init@mode,w
  4739  0016  1D03               	btfss	3,2
  4740  0017  2819               	goto	u2241
  4741  0018  281A               	goto	u2240
  4742  0019                     u2241:
  4743  0019  2821               	goto	l1874
  4744  001A                     u2240:
  4745  001A                     l1872:
  4746                           
  4747                           ;./i2c.h: 25:         SSPCONbits.SSPM = 0x8;
  4748  001A  1283               	bcf	3,5	;RP0=0, select bank0
  4749  001B  1303               	bcf	3,6	;RP1=0, select bank0
  4750  001C  0814               	movf	20,w	;volatile
  4751  001D  39F0               	andlw	-16
  4752  001E  3808               	iorlw	8
  4753  001F  0094               	movwf	20	;volatile
  4754                           
  4755                           ;./i2c.h: 26:     } else {
  4756  0020  2827               	goto	l1876
  4757  0021                     l1874:
  4758                           
  4759                           ;./i2c.h: 27:         SSPCONbits.SSPM = 0x4;
  4760  0021  1283               	bcf	3,5	;RP0=0, select bank0
  4761  0022  1303               	bcf	3,6	;RP1=0, select bank0
  4762  0023  0814               	movf	20,w	;volatile
  4763  0024  39F0               	andlw	-16
  4764  0025  3804               	iorlw	4
  4765  0026  0094               	movwf	20	;volatile
  4766  0027                     l1876:
  4767                           
  4768                           ;./i2c.h: 30:     SSPCON2 = 0;
  4769  0027  1683               	bsf	3,5	;RP0=1, select bank1
  4770  0028  1303               	bcf	3,6	;RP1=0, select bank1
  4771  0029  0191               	clrf	17	;volatile
  4772  002A                     l1878:
  4773                           
  4774                           ;./i2c.h: 31:     SSPADD = 0x9;
  4775  002A  3009               	movlw	9
  4776  002B  0093               	movwf	19	;volatile
  4777  002C                     l1880:
  4778                           
  4779                           ;./i2c.h: 32:     SSPIF=0;
  4780  002C  1283               	bcf	3,5	;RP0=0, select bank0
  4781  002D  1303               	bcf	3,6	;RP1=0, select bank0
  4782  002E  118C               	bcf	12,3	;volatile
  4783  002F                     l1882:
  4784                           
  4785                           ;./i2c.h: 33:     SSPIE=1;
  4786  002F  1683               	bsf	3,5	;RP0=1, select bank1
  4787  0030  1303               	bcf	3,6	;RP1=0, select bank1
  4788  0031  158C               	bsf	12,3	;volatile
  4789  0032                     l43:
  4790  0032  0008               	return
  4791  0033                     __end_of_I2C_Init:
  4792  007E                     btemp	set	126	;btemp
  4793  007E                     wtemp0	set	126
  4794                           
  4795                           	psect	config
  4796                           
  4797                           ;Config register CONFIG1 @ 0x2007
  4798                           ;	Oscillator Selection bits
  4799                           ;	FOSC = XT, XT oscillator: Crystal/resonator on RA6/OSC2/CLKOUT and RA7/OSC1/CLKIN
  4800                           ;	Watchdog Timer Enable bit
  4801                           ;	WDTE = ON, WDT enabled
  4802                           ;	Power-up Timer Enable bit
  4803                           ;	PWRTE = OFF, PWRT disabled
  4804                           ;	RE3/MCLR pin function select bit
  4805                           ;	MCLRE = OFF, RE3/MCLR pin function is digital input, MCLR internally tied to VDD
  4806                           ;	Code Protection bit
  4807                           ;	CP = OFF, Program memory code protection is disabled
  4808                           ;	Data Code Protection bit
  4809                           ;	CPD = OFF, Data memory code protection is disabled
  4810                           ;	Brown Out Reset Selection bits
  4811                           ;	BOREN = ON, BOR enabled
  4812                           ;	Internal External Switchover bit
  4813                           ;	IESO = ON, Internal/External Switchover mode is enabled
  4814                           ;	Fail-Safe Clock Monitor Enabled bit
  4815                           ;	FCMEN = ON, Fail-Safe Clock Monitor is enabled
  4816                           ;	Low Voltage Programming Enable bit
  4817                           ;	LVP = ON, RB3/PGM pin has PGM function, low voltage programming enabled
  4818                           ;	In-Circuit Debugger Mode bit
  4819                           ;	DEBUG = 0x1, unprogrammed default
  4820  2007                     	org	8199
  4821  2007  3FD9               	dw	16345
  4822                           
  4823                           ;Config register CONFIG2 @ 0x2008
  4824                           ;	Brown-out Reset Selection bit
  4825                           ;	BOR4V = BOR40V, Brown-out Reset set to 4.0V
  4826                           ;	Flash Program Memory Self Write Enable bits
  4827                           ;	WRT = OFF, Write protection off
  4828  2008                     	org	8200
  4829  2008  3FFF               	dw	16383

Data Sizes:
    Strings     0
    Constant    0
    Data        0
    BSS         30
    Persistent  0
    Stack       0

Auto Spaces:
    Space          Size  Autos    Used
    COMMON           13     13      13
    BANK0            80     48      78
    BANK1            80      0       0
    BANK3            85      0       0
    BANK2            96      0       0

Pointer List with Targets:

    memset@p1	PTR void  size(1) Largest target is 2
		 -> buffer(BANK0[2]), 

    memset@p	PTR unsigned char  size(1) Largest target is 2
		 -> buffer(BANK0[2]), 

    sp__memset	PTR void  size(1) Largest target is 2
		 -> buffer(BANK0[2]), 

    MPU6050_ReadRegister@buffer	PTR unsigned char  size(1) Largest target is 2
		 -> buffer(BANK0[2]), 


Critical Paths under _main in COMMON

    _MPU6050_Init->_MPU6050_SetRegister
    _MPU6050_SetRegister->_I2C_Start
    _MPU6050_GetTemp->___fldiv
    ___fladd->___fldiv
    _MPU6050_GetGyroZ->___fldiv
    _MPU6050_GetGyroY->___fldiv
    _MPU6050_Get16BitRegister->_MPU6050_ReadRegister
    _MPU6050_GetGyroX->_MPU6050_ReadRegister
    _MPU6050_GetGyroX->___fldiv
    _MPU6050_GetAccelZ->_MPU6050_ReadRegister
    _MPU6050_GetAccelZ->___fldiv
    _MPU6050_GetAccelY->_MPU6050_ReadRegister
    _MPU6050_GetAccelY->___fldiv
    _MPU6050_GetAccelX->_MPU6050_ReadRegister
    _MPU6050_GetAccelX->___fldiv
    _MPU6050_ReadRegister->_memset
    _I2C_Start->_I2C_Write
    _I2C_RepeatedStart->_I2C_Write

Critical Paths under _main in BANK0

    _main->_MPU6050_GetTemp
    _MPU6050_GetTemp->___fladd
    ___fladd->___fldiv
    _MPU6050_GetGyroZ->_MPU6050_Get16BitRegister
    _MPU6050_GetGyroY->_MPU6050_Get16BitRegister
    _MPU6050_Get16BitRegister->___xxtofl
    _MPU6050_GetGyroX->___fldiv
    _MPU6050_GetAccelZ->___fldiv
    _MPU6050_GetAccelY->___fldiv
    _MPU6050_GetAccelX->___fldiv

Critical Paths under _main in BANK1

    None.

Critical Paths under _main in BANK3

    None.

Critical Paths under _main in BANK2

    None.

Call Graph Tables:

 ---------------------------------------------------------------------------------
 (Depth) Function   	        Calls       Base Space   Used Autos Params    Refs
 ---------------------------------------------------------------------------------
 (0) _main                                                 3     3      0   36902
                                             45 BANK0      3     3      0
                           _I2C_Init
                  _MPU6050_GetAccelX
                  _MPU6050_GetAccelY
                  _MPU6050_GetAccelZ
                   _MPU6050_GetGyroX
                   _MPU6050_GetGyroY
                   _MPU6050_GetGyroZ
                    _MPU6050_GetTemp
                       _MPU6050_Init
 ---------------------------------------------------------------------------------
 (1) _MPU6050_Init                                         1     1      0     614
                                              6 COMMON     1     1      0
                _MPU6050_SetRegister
 ---------------------------------------------------------------------------------
 (2) _MPU6050_SetRegister                                  4     3      1     614
                                              2 COMMON     4     3      1
                          _I2C_Start
                           _I2C_Stop
                          _I2C_Write
 ---------------------------------------------------------------------------------
 (1) _MPU6050_GetTemp                                     12     8      4    7152
                                             33 BANK0     12     8      4
           _MPU6050_Get16BitRegister
                            ___fladd
                            ___fldiv
 ---------------------------------------------------------------------------------
 (2) ___fladd                                             20    12      8    2262
                                             13 BANK0     20    12      8
                            ___fldiv (ARG)
 ---------------------------------------------------------------------------------
 (1) _MPU6050_GetGyroZ                                     8     4      4    4867
                                             15 BANK0      8     4      4
           _MPU6050_Get16BitRegister
                            ___fldiv
 ---------------------------------------------------------------------------------
 (1) _MPU6050_GetGyroY                                     8     4      4    4867
                                             15 BANK0      8     4      4
           _MPU6050_Get16BitRegister
                            ___fldiv
 ---------------------------------------------------------------------------------
 (2) _MPU6050_Get16BitRegister                             9     5      4    2659
                                              6 BANK0      9     5      4
               _MPU6050_ReadRegister
                           ___xxtofl
 ---------------------------------------------------------------------------------
 (1) _MPU6050_GetGyroX                                    12     8      4    4845
                                             13 BANK0     12     8      4
               _MPU6050_ReadRegister
                            ___fldiv
                           ___xxtofl
 ---------------------------------------------------------------------------------
 (1) _MPU6050_GetAccelZ                                   12     8      4    4845
                                             13 BANK0     12     8      4
               _MPU6050_ReadRegister
                            ___fldiv
                           ___xxtofl
 ---------------------------------------------------------------------------------
 (1) _MPU6050_GetAccelY                                   12     8      4    4845
                                             13 BANK0     12     8      4
               _MPU6050_ReadRegister
                            ___fldiv
                           ___xxtofl
 ---------------------------------------------------------------------------------
 (1) _MPU6050_GetAccelX                                   12     8      4    4845
                                             13 BANK0     12     8      4
               _MPU6050_ReadRegister
                            ___fldiv
                           ___xxtofl
 ---------------------------------------------------------------------------------
 (3) ___xxtofl                                            14    10      4     702
                                              0 COMMON     8     4      4
                                              0 BANK0      6     6      0
 ---------------------------------------------------------------------------------
 (2) ___fldiv                                             26    18      8    2185
                                              0 COMMON    13     5      8
                                              0 BANK0     13    13      0
 ---------------------------------------------------------------------------------
 (3) _MPU6050_ReadRegister                                 9     5      4    1935
                                              7 COMMON     6     2      4
                                              0 BANK0      3     3      0
                           _I2C_Read
                  _I2C_RepeatedStart
                          _I2C_Start
                           _I2C_Stop
                          _I2C_Write
                             _memset
 ---------------------------------------------------------------------------------
 (4) _memset                                               7     3      4     281
                                              0 COMMON     7     3      4
 ---------------------------------------------------------------------------------
 (3) _I2C_Stop                                             0     0      0       0
 ---------------------------------------------------------------------------------
 (3) _I2C_Start                                            1     1      0      44
                                              1 COMMON     1     1      0
                          _I2C_Write
 ---------------------------------------------------------------------------------
 (4) _I2C_RepeatedStart                                    1     1      0      44
                                              1 COMMON     1     1      0
                          _I2C_Write
 ---------------------------------------------------------------------------------
 (3) _I2C_Write                                            1     1      0      22
                                              0 COMMON     1     1      0
                           _I2C_Wait
 ---------------------------------------------------------------------------------
 (4) _I2C_Wait                                             0     0      0       0
 ---------------------------------------------------------------------------------
 (4) _I2C_Read                                             3     3      0      46
                                              0 COMMON     3     3      0
                            _I2C_Ack
                           _I2C_Nack
 ---------------------------------------------------------------------------------
 (5) _I2C_Nack                                             0     0      0       0
 ---------------------------------------------------------------------------------
 (5) _I2C_Ack                                              0     0      0       0
 ---------------------------------------------------------------------------------
 (1) _I2C_Init                                             1     1      0      22
                                              0 COMMON     1     1      0
 ---------------------------------------------------------------------------------
 Estimated maximum stack depth 5
 ---------------------------------------------------------------------------------

 Call Graph Graphs:

 _main (ROOT)
   _I2C_Init
   _MPU6050_GetAccelX
     _MPU6050_ReadRegister
       _I2C_Read
         _I2C_Ack
         _I2C_Nack
       _I2C_RepeatedStart
         _I2C_Write
           _I2C_Wait
       _I2C_Start
         _I2C_Write
       _I2C_Stop
       _I2C_Write
       _memset
     ___fldiv
     ___xxtofl
   _MPU6050_GetAccelY
     _MPU6050_ReadRegister
     ___fldiv
     ___xxtofl
   _MPU6050_GetAccelZ
     _MPU6050_ReadRegister
     ___fldiv
     ___xxtofl
   _MPU6050_GetGyroX
     _MPU6050_ReadRegister
     ___fldiv
     ___xxtofl
   _MPU6050_GetGyroY
     _MPU6050_Get16BitRegister
       _MPU6050_ReadRegister
       ___xxtofl
     ___fldiv
   _MPU6050_GetGyroZ
     _MPU6050_Get16BitRegister
     ___fldiv
   _MPU6050_GetTemp
     _MPU6050_Get16BitRegister
     ___fladd
       ___fldiv (ARG)
     ___fldiv
   _MPU6050_Init
     _MPU6050_SetRegister
       _I2C_Start
       _I2C_Stop
       _I2C_Write

 Address spaces:
Name               Size   Autos  Total    Cost      Usage
BITCOMMON            D      0       0       0        0.0%
EEDATA             100      0       0       0        0.0%
NULL                 0      0       0       0        0.0%
CODE                 0      0       0       0        0.0%
COMMON               D      D       D       1      100.0%
BITSFR0              0      0       0       1        0.0%
SFR0                 0      0       0       1        0.0%
BITSFR1              0      0       0       2        0.0%
SFR1                 0      0       0       2        0.0%
STACK                0      0       0       2        0.0%
ABS                  0      0      5B       3        0.0%
BITBANK0            50      0       0       4        0.0%
BITSFR3              0      0       0       4        0.0%
SFR3                 0      0       0       4        0.0%
BANK0               50     30      4E       5       97.5%
BITSFR2              0      0       0       5        0.0%
SFR2                 0      0       0       5        0.0%
BITBANK1            50      0       0       6        0.0%
BANK1               50      0       0       7        0.0%
BITBANK3            55      0       0       8        0.0%
BANK3               55      0       0       9        0.0%
BITBANK2            60      0       0      10        0.0%
BANK2               60      0       0      11        0.0%
DATA                 0      0      5B      12        0.0%


Microchip Technology PIC Macro Assembler V2.32 build 20210201212658 
Symbol Table                                                                                   Sun Mar 14 18:20:01 2021

                     ___fldiv@aexp 002C                       ___fldiv@bexp 002B  
                     ___fldiv@sign 0024                 __size_of_I2C_Start 001A  
                      _SSPSTATbits 0094                 __size_of_I2C_Write 0014  
                               l50 0E78                                 l43 0032  
                               l61 0E44                                 l53 0E49  
                               l46 0E63                                 l55 0E4D  
                               l71 0E26                                 l48 0E67  
                               l65 0E01                                 l57 0E5E  
                               l73 0E2A                                 l90 0E19  
                               l67 0E07                                 l75 0E30  
                               l84 0E98                                 l68 0E08  
                               l93 0E1E                                 l87 0E15  
                               l79 0E7D                                 l96 0E22  
                               fsr 0004             ??_MPU6050_ReadRegister 007C  
                              l101 0F74                                l110 02C6  
                              l104 0EDC                                l122 00E6  
                              l106 0EE1                                l131 0F11  
                              l116 02CB                                l140 0FB0  
                              l125 0140                                l134 0F41  
                              l119 008C                                l128 019A  
                              l137 0FFF                                l621 055E  
                              l613 04DC                                l541 05CE  
                              l702 0EB8                                l545 0675  
                              l562 0740                                l554 07F2  
                              l619 054E                                l547 064C  
                              l572 0786                                l566 0764  
                              l583 07E6                                l575 07C4  
                              l584 07F2                                l681 02F0  
                              l683 0387                                l597 03E4  
                              l694 0351                                l599 056A  
                              l695 035D                                l687 0335  
                  __end_of_I2C_Ack 0E1A                                fsr0 0004  
                              indf 0000           MPU6050_GetTemp@raw_value 0045  
                             l1400 0E23                               l1410 0E81  
                             l1412 0E87                               l1500 0375  
                             l1414 0E8C                               l1406 0E7A  
                             l1422 0E9A                               l1430 0224  
                             l1502 037A                               l1510 0EBA  
                             l1416 0E92                               l1408 0E7A  
                             l1360 0E32                               l1424 0E9F  
                             l1440 024F                               l1432 0234  
                             l1504 037E                               l1600 060C  
                             l1520 0ED6                               l1512 0EBA  
                             l1418 0E97                               l1362 0E36  
                             l1426 0EA6                               l1450 0277  
                             l1442 0254                               l1434 0234  
                             l1506 037F                               l1522 0F78  
                             l1610 0630                               l1602 0610  
                             l1530 0572                               l1514 0EC3  
                             l1372 0E43                               l1364 0E3B  
                             l1380 0E60                               l1428 0EAA  
                             l1460 02A1                               l1452 027C  
                             l1444 025F                               l1436 023F  
                             l1524 0F8A                               l1700 07A2  
                             l1620 0660                               l1612 0650  
                             l1604 0614                               l1540 0587  
                             l1532 0578                               l1516 0EC8  
                             l1358 0E01                               l1366 0E41  
                             l1390 0E46                               l1382 0E70  
                             l1462 02B4                               l1454 0289  
                             l1446 0264                               l1438 0244  
                             l1470 02D8                               l1710 07DB  
                             l1702 07C0                               l1622 0669  
                             l1614 0659                               l1606 0618  
                             l1550 059F                               l1542 058F  
                             l1534 057C                               l1518 0ED1  
                             l1376 0E11                               l1392 0E56  
                             l1456 028C                               l1448 026A  
                             l1464 02C6                               l1800 0477  
                             l1480 0306                               l1472 02E8  
                             l1720 07F1                               l1712 07DC  
                             l1704 07C9                               l1640 06AF  
                             l1632 0687                               l1616 065B  
                             l1624 066D                               l1608 0619  
                             l1560 05B1                               l1552 05A5  
                             l1544 0590                               l1536 057D  
                             l1528 056B                               l1378 0E1A  
                             l1386 0E72                               l1458 029D  
                             l1810 049F                               l1802 048B  
                             l1730 039A                               l1722 0388  
                             l1490 033C                               l1482 0313  
                             l1474 02F8                               l1466 02CF  
                             l1714 07E0                               l1706 07CE  
                             l1642 06B1                               l1634 069E  
                             l1626 0679                               l1650 06C4  
                             l1618 065F                               l1562 05B6  
                             l1570 05C6                               l1554 05A6  
                             l1538 0582                               l1546 0592  
                             l1396 0E58                               l1812 04A8  
                             l1820 04BC                               l1804 048F  
                             l1732 039F                               l1740 03AF  
                             l1724 038F                               l1492 0347  
                             l1484 031A                               l1468 02D4  
                             l1716 07E2                               l1708 07D6  
                             l1652 06DA                               l1660 0732  
                             l1644 06B5                               l1636 06A2  
                             l1628 067E                               l1580 05E4  
                             l1572 05D4                               l1564 05BB  
                             l1556 05AC                               l1548 059A  
                             l1822 04C0                               l1814 04AC  
                             l1806 0495                               l1750 03C7  
                             l1742 03B7                               l1734 03A4  
                             l1726 0395                               l1494 034B  
                             l1486 031E                               l1478 0301  
                             l1902 00E7                               l1910 0141  
                             l1718 07ED                               l1670 075F  
                             l1662 0748                               l1654 0718  
                             l1646 06B6                               l1638 06A6  
                             l1590 05F8                               l1582 05E8  
                             l1574 05D8                               l1566 05C3  
                             l1558 05B0                               l1840 0511  
                             l1832 04E1                               l1824 04C1  
                             l1816 04AD                               l1808 049D  
                             l1752 03CC                               l1760 03DC  
                             l1744 03BC                               l1736 03AC  
                             l1728 0399                               l1496 0355  
                             l1488 032C                               l1904 00FB  
                             l1912 0155                               l1920 0EF2  
                             l1680 0772                               l1672 0763  
                             l1664 074D                               l1656 071E  
                             l1648 06BF                               l1592 05FC  
                             l1584 05EC                               l1576 05DC  
                             l1568 05C4                               l1850 0545  
                             l1834 04E6                               l1842 0517  
                             l1826 04C5                               l1818 04B6  
                             l1762 03EC                               l1770 0405  
                             l1754 03D1                               l1746 03C2  
                             l1738 03AD                               l1498 035F  
                             l1906 0121                               l1914 017B  
                             l1690 0783                               l1674 0768  
                             l1682 0774                               l1658 0723  
                             l1594 0600                               l1586 05F0  
                             l1578 05E0                               l1930 0FB1  
                             l1852 054D                               l1844 0524  
                             l1836 04F4                               l1828 04D9  
                             l1780 042D                               l1772 040A  
                             l1764 03F8                               l1756 03D9  
                             l1748 03C6                               l1924 0F12  
                             l1676 076B                               l1668 0756  
                             l1684 0778                               l1596 0604  
                             l1588 05F4                               l1932 0FC1  
                             l1940 01A6                               l1870 0015  
                             l1854 0554                               l1846 0532  
                             l1838 04F8                               l1790 0456  
                             l1782 0435                               l1766 03FC  
                             l1758 03DA                               l1918 0EE2  
                             l1926 0F22                               l1694 078B  
                             l1686 0779                               l1678 076D  
                             l1598 0608                               l1934 0FF7  
                             l1950 01F1                               l1942 01B5  
                             l1880 002C                               l1872 001A  
                             l1864 000A                               l1856 0558  
                             l1848 0541                               l1792 045A  
                             l1784 043D                               l1776 0413  
                             l1696 0790                               l1688 077D  
                             l1952 0200                               l1944 01C4  
                             l1882 002F                               l1874 0021  
                             l1866 0011                               l1858 055A  
                             l1794 045B                               l1786 043F  
                             l1778 0425                               l1890 006D  
                             l1698 079E                               l1954 020F  
                             l1946 01D3                               l1938 019B  
                             l1876 0027                               l1868 0014  
                             l1788 0444                               l1796 0464  
                             l1884 0F42                               l1948 01E2  
                             l1878 002A                               l1798 0476  
                             l1886 0033                               l1894 008D  
                             l1888 0047                               l1896 00A1  
                             l1898 00C7                               u1200 0E56  
                             u2000 03EC                               u1201 0E55  
                             u2001 03EB                               u1130 0E07  
                             u1210 0E2A                               u2010 040A  
                             u1131 0E06                               u1211 0E29  
                             u2011 0409                               u1220 0E81  
                             u1140 0E41                               u1300 0289  
                             u2100 049D                               u2020 0444  
                             u1221 0E80                               u1141 0E40  
                             u1301 0288                               u2101 049C  
                             u2021 0443                               u1150 0E19  
                             u1230 0E8C                               u1310 02B4  
                             u1151 0E18                               u1231 0E8B  
                             u1311 02B3                               u1160 0E22  
                             u1240 0EB8                               u2200 0507  
                             u2120 04AC                               u1400 034B  
                             u1320 02D4                               u1161 0E21  
                             u1241 0EB7                               u1305 0285  
                             u2121 04AB                               u1401 034A  
                             u1321 02D3                               u1170 0E67  
                             u1250 0244                               u2210 0524  
                             u2050 045A                               u1410 0351  
                             u1330 02D8                               u1171 0E66  
                             u1315 02B0                               u1251 0243  
                             u2211 0523                               u2115 04A1  
                             u2051 0459                               u2035 0446  
                             u1411 0350                               u1331 02D7  
                             u1180 0E70                               u1260 0254  
                             u2220 0541                               u2140 04C0  
                             u1420 0355                               u1340 02F8  
                             u1500 0587                               u1181 0E6F  
                             u1261 0253                               u2221 0540  
                             u2205 0502                               u2141 04BF  
                             u2045 044F                               u1421 0354  
                             u1341 02F7                               u1501 0586  
                             u1190 0E4D                               u1270 0264  
                             u2230 0558                               u2150 04C5  
                             u2070 0476                               u1430 036A  
                             u1510 05A5                               u1191 0E4C  
                             u1271 0263                               u2231 0557  
                             u2215 0520                               u2151 04C4  
                             u2135 04AF                               u2071 0475  
                             u1511 05A4                               u2240 001A  
                             u1280 026A                               u2160 04D9  
                             u2080 048B                               u1440 037A  
                             u1360 0319                               u1600 0650  
                             u1520 05B0                               u2241 0019  
                             u1281 0269                               u2225 053D  
                             u2161 04D8                               u2065 045D  
                             u1441 0379                               u1361 0318  
                             u1601 064F                               u1521 05AF  
                             u1290 027C                               u2170 04E0  
                             u2090 0495                               u1450 037E  
                             u1610 065F                               u1530 05B6  
                             u1291 027B                               u2171 04DF  
                             u2091 0494                               u2075 0472  
                             u1451 037D                               u1435 0365  
                             u1355 030B                               u1611 065E  
                             u1531 05B5                               u2180 04E6  
                             u1380 033B                               u1540 05BB  
                             u1460 0EC8                               u2181 04E5  
                             u2085 047E                               u1381 033A  
                             u1541 05BA                               u1461 0EC7  
                             u2190 04F8                               u2086 047F  
                             u1710 06DA                               u1630 0675  
                             u1550 05D4                               u1470 0ED6  
                             u2191 04F7                               u2087 0484  
                             u1375 032D                               u1711 06D9  
                             u1631 0674                               u1551 05D3  
                             u1471 0ED5                               u2088 0485  
                             u1800 0772                               u1640 0679  
                             u1560 05D8                               u1480 057C  
                             u2089 048A                               u1801 0771  
                             u1721 06F1                               u1713 06D6  
                             u1705 06B8                               u1641 0678  
                             u1625 0662                               u1561 05D7  
                             u1481 057B                               u2257 0217  
                             u1810 0778                               u1730 0705  
                             u1722 06F2                               u1650 067E  
                             u1570 0630                               u1490 0582  
                             u1395 0340                               u1811 0777  
                             u1731 0706                               u1723 06F7  
                             u1651 067D                               u1571 062F  
                             u1491 0581                               u1900 07CE  
                             u1820 077D                               u1740 0723  
                             u1732 070B                               u1724 06F8  
                             u1580 063B                               u1901 07CD  
                             u1821 077C                               u1741 0722  
                             u1733 070C                               u1725 06FD  
                             u1661 0690                               u1581 0639  
                             u1910 07DB                               u1830 0783  
                             u1750 0748                               u1726 06FE  
                             u1670 06A2                               u1662 0697  
                             u1590 063C                               u1911 07DA  
                             u1831 0782                               u1751 0747  
                             u1671 06A1                               u1663 069E  
                             u1575 062C                               u1920 07E0  
                             u1840 078A                               u1760 074D  
                             u1680 06A6                               u1921 07DF  
                             u1841 0789                               u1761 074C  
                             u1681 06A5                               u1930 07F1  
                             u1850 0790                               u1690 06B5  
                             u1931 07F0                               u1851 078F  
                             u1691 06B4                               u1940 0399  
                             u1860 07A2                               u1780 0763  
                             u1941 0398                               u1861 07A1  
                             u1781 0762                               u1950 039F  
                             u1870 07B1                               u1790 0768  
                             u1951 039E                               u1791 0767  
                             u1775 0758                               u1960 03A4  
                             u1880 07C0                               u1961 03A3  
                             u1881 07BF                               u1970 03C6  
                             u1890 07C9                               u1971 03C5  
                             u1891 07C8                               u1875 07AC  
                             u1980 03CC                               u1981 03CB  
                             u1990 03D1                               u1991 03D0  
                             _main 019B                   __end_of_I2C_Nack 0E23  
                 __end_of_I2C_Init 0033                               _temp 005C  
                 __end_of_I2C_Read 0E99                               btemp 007E  
                 __end_of_I2C_Wait 0E09                   __end_of_I2C_Stop 0E31  
                             start 0001                    ___fldiv@new_exp 0025  
                  __end_of___fladd 07F3                              ?_main 0071  
                  __end_of___fldiv 056B           I2C_RepeatedStart@address 0072  
                            _SSPIE 0463                              _SSPIF 0063  
      MPU6050_Get16BitRegister@reg 002E         ??_MPU6050_Get16BitRegister 002A  
                    ?_MPU6050_Init 0071                              _gyroX 0058  
                            _gyroY 0054                              _gyroZ 0050  
                __end_of_I2C_Start 0E79                  __end_of_I2C_Write 0E45  
                            status 0003                              wtemp0 007E  
                  __initialization 07F3                       __end_of_main 0221  
                        ??_I2C_Ack 0071         MPU6050_GetAccelX@raw_value 0035  
                           ??_main 004D                   _MPU6050_GetGyroX 0141  
                 _MPU6050_GetGyroY 0EE2                   _MPU6050_GetGyroZ 0F12  
       MPU6050_GetAccelY@raw_value 0035                     ??_MPU6050_Init 0077  
                 I2C_Start@address 0072          MPU6050_GetGyroX@raw_value 0035  
       MPU6050_GetAccelZ@raw_value 0035                             _SSPADD 0093  
         __size_of_MPU6050_GetTemp 004F                             _SSPBUF 0013  
                 __end_of___xxtofl 0388          MPU6050_GetGyroY@raw_value 0033  
                           _accelX 0068                             _accelY 0064  
                           _accelZ 0060                          ??___fladd 0035  
                        ??___fldiv 0079                             _buffer 006C  
                           _memset 0E99          MPU6050_GetGyroZ@raw_value 0033  
           MPU6050_SetRegister@reg 0075                          ?_I2C_Nack 0071  
                        ?_I2C_Init 0071                          ?_I2C_Read 0071  
                        ?_I2C_Wait 0071                          ?_I2C_Stop 0071  
                     ___xxtofl@arg 0022                       ___xxtofl@exp 0021  
                     ___xxtofl@val 0071            __end_of__initialization 07FC  
     __size_of_MPU6050_SetRegister 0029                     __pcstackCOMMON 0071  
                       ??_I2C_Nack 0071                         ??_I2C_Init 0071  
                       ??_I2C_Read 0071                         ??_I2C_Wait 0071  
                       ??_I2C_Stop 0071                         __pbssBANK0 0050  
                _MPU6050_GetAccelX 0033                  _MPU6050_GetAccelY 008D  
                _MPU6050_GetAccelZ 00E7                 ?_MPU6050_GetAccelX 002D  
               ?_MPU6050_GetAccelY 002D                 ?_MPU6050_GetAccelZ 002D  
                     I2C_Init@mode 0071                         __pmaintext 019B  
                     I2C_Read@mode 0072                ??_MPU6050_GetAccelX 0031  
              ??_MPU6050_GetAccelY 0031                ??_MPU6050_GetAccelZ 0031  
                ??_MPU6050_GetTemp 007E                     I2C_Read@buffer 0073  
             __end_of_MPU6050_Init 0F75                            _I2C_Ack 0E11  
                          _ACKSTAT 048E                            ?_memset 0071  
                        ?___xxtofl 0071      __size_of_MPU6050_ReadRegister 00AB  
        __end_of_MPU6050_GetAccelX 008D          __end_of_MPU6050_GetAccelY 00E7  
        __end_of_MPU6050_GetAccelZ 0141                            _SSPCON2 0091  
                          _SSPSTAT 0094                          _I2C_Start 0E5F  
                        _I2C_Write 0E31           __end_of_MPU6050_GetGyroX 019B  
         __end_of_MPU6050_GetGyroY 0F12           __end_of_MPU6050_GetGyroZ 0F42  
                          ___fladd 056B                            ___fldiv 0388  
      MPU6050_ReadRegister@ackMode 0022                    __size_of_memset 0020  
                          __ptext1 0F42                            __ptext2 0EB9  
                          __ptext3 0FB1                            __ptext4 056B  
                          __ptext5 0F12                            __ptext6 0EE2  
                          __ptext7 0F75                            __ptext8 0141  
                          __ptext9 00E7                         ??___xxtofl 0075  
                          clrloop0 0E0A               end_of_initialization 07FC  
                          memset@c 0071                            memset@n 0073  
                          memset@p 0077                         ?_I2C_Start 0071  
                       ?_I2C_Write 0071  __size_of_MPU6050_Get16BitRegister 003C  
        ?_MPU6050_Get16BitRegister 0026                        ___fladd@grs 0040  
              _MPU6050_SetRegister 0EB9                      ___xxtofl@sign 0020  
                        _TRISCbits 0087                  __size_of_I2C_Nack 0009  
                __size_of_I2C_Init 002A                  __size_of_I2C_Read 0020  
                      ___fldiv@grs 0027         __size_of_MPU6050_GetAccelX 005A  
       __size_of_MPU6050_GetAccelY 005A         __size_of_MPU6050_GetAccelZ 005A  
                      ___fldiv@rem 0020                  __size_of_I2C_Wait 0008  
                __size_of_I2C_Stop 000E              __size_of_MPU6050_Init 0033  
             ?_MPU6050_SetRegister 0073                     __end_of_memset 0EB9  
              start_initialization 07F3                       _MPU6050_Init 0F42  
                  _MPU6050_GetTemp 0FB1                        ??_I2C_Start 0072  
                      ??_I2C_Write 0071              ??_MPU6050_SetRegister 0074  
                _I2C_RepeatedStart 0E45                           ?_I2C_Ack 0071  
                         ??_memset 0075                 ?_I2C_RepeatedStart 0071  
                        ___fladd@a 0031                          ___fladd@b 002D  
                        ___fldiv@a 0071                          ___fldiv@b 0075  
                        ___latbits 0002                      __pcstackBANK0 0020  
              ??_I2C_RepeatedStart 0072                  __size_of___xxtofl 00BC  
       MPU6050_SetRegister@ackMode 0076       __end_of_MPU6050_ReadRegister 02CC  
                ?_MPU6050_GetGyroX 002D                  ?_MPU6050_GetGyroY 002F  
                ?_MPU6050_GetGyroZ 002F          __end_of_I2C_RepeatedStart 0E5F  
                         ?___fladd 002D                           ?___fldiv 0071  
               ??_MPU6050_GetGyroX 0031                 ??_MPU6050_GetGyroY 007E  
               ??_MPU6050_GetGyroZ 007E                           _I2C_Nack 0E1A  
                         _I2C_Init 0009                           _I2C_Read 0E79  
                         _I2C_Wait 0E01                           _I2C_Stop 0E23  
          __end_of_MPU6050_GetTemp 1000   __end_of_MPU6050_Get16BitRegister 0FB1  
       MPU6050_ReadRegister@buffer 007A                          clear_ram0 0E09  
                 __size_of_I2C_Ack 0009               MPU6050_GetTemp@value 0049  
       __size_of_I2C_RepeatedStart 001A                      I2C_Write@data 0071  
                 __size_of___fladd 0288                   __size_of___fldiv 01E3  
          MPU6050_ReadRegister@reg 0020                           ___xxtofl 02CC  
             _MPU6050_ReadRegister 0221                   ?_MPU6050_GetTemp 0041  
                         __ptext10 008D                           __ptext11 0033  
                         __ptext20 0E01                           __ptext12 02CC  
                         __ptext21 0E79                           __ptext13 0388  
                         __ptext22 0E1A                           __ptext14 0221  
                         __ptext23 0E11                           __ptext15 0E99  
                         __ptext24 0009                           __ptext16 0E23  
                         __ptext17 0E5F                           __ptext18 0E45  
                         __ptext19 0E31                      __size_of_main 0086  
        MPU6050_ReadRegister@index 0021           _MPU6050_Get16BitRegister 0F75  
         MPU6050_SetRegister@value 0073              ?_MPU6050_ReadRegister 0078  
                         memset@p1 0076        __end_of_MPU6050_SetRegister 0EE2  
    MPU6050_ReadRegister@num_bytes 0078  MPU6050_ReadRegister@buffer_length 007B  
        __size_of_MPU6050_GetGyroX 005A          __size_of_MPU6050_GetGyroY 0030  
        __size_of_MPU6050_GetGyroZ 0030                        _SSPCON2bits 0091  
                    ___fladd@signs 003D                       ___fladd@aexp 003E  
                     ___fladd@bexp 003F                         _SSPCONbits 0014  
